ARM Linker, 4.1 [Build 894] [Standard]

==============================================================================

Section Cross References

    startup_stm32f4xx.o(RESET) refers to startup_stm32f4xx.o(STACK) for __initial_sp
    startup_stm32f4xx.o(RESET) refers to startup_stm32f4xx.o(.text) for Reset_Handler
    startup_stm32f4xx.o(RESET) refers to stm32f4xx_it.o(i.NMI_Handler) for NMI_Handler
    startup_stm32f4xx.o(RESET) refers to stm32f4xx_it.o(i.HardFault_Handler) for HardFault_Handler
    startup_stm32f4xx.o(RESET) refers to stm32f4xx_it.o(i.MemManage_Handler) for MemManage_Handler
    startup_stm32f4xx.o(RESET) refers to stm32f4xx_it.o(i.BusFault_Handler) for BusFault_Handler
    startup_stm32f4xx.o(RESET) refers to stm32f4xx_it.o(i.UsageFault_Handler) for UsageFault_Handler
    startup_stm32f4xx.o(RESET) refers to stm32f4xx_it.o(i.SVC_Handler) for SVC_Handler
    startup_stm32f4xx.o(RESET) refers to stm32f4xx_it.o(i.DebugMon_Handler) for DebugMon_Handler
    startup_stm32f4xx.o(RESET) refers to stm32f4xx_it.o(i.PendSV_Handler) for PendSV_Handler
    startup_stm32f4xx.o(RESET) refers to stm32f4xx_it.o(i.SysTick_Handler) for SysTick_Handler
    startup_stm32f4xx.o(RESET) refers to stm32f4xx_it.o(i.TIM3_IRQHandler) for TIM3_IRQHandler
    startup_stm32f4xx.o(.text) refers to system_stm32f4xx.o(i.SystemInit) for SystemInit
    startup_stm32f4xx.o(.text) refers to entry.o(.ARM.Collect$$$$00000000) for __main
    system_stm32f4xx.o(i.SystemCoreClockUpdate) refers to system_stm32f4xx.o(.data) for SystemCoreClock
    system_stm32f4xx.o(i.SystemInit) refers to system_stm32f4xx.o(i.SetSysClock) for SetSysClock
    nanovm.o(i.Maintread_invoke) refers to native_impl.o(i.native_init) for native_init
    nanovm.o(i.Maintread_invoke) refers to nvmfile.o(i.nvmfile_init) for nvmfile_init
    nanovm.o(i.Maintread_invoke) refers to vm.o(i.vm_init) for vm_init
    nanovm.o(i.Maintread_invoke) refers to nvmfile.o(i.nvmfile_call_main) for nvmfile_call_main
    nanovm.o(i.kernel_main) refers to scheduler.o(i.Init_scheduler) for Init_scheduler
    nanovm.o(i.kernel_main) refers to task.o(i.Init_idle_task) for Init_idle_task
    nanovm.o(i.kernel_main) refers to mutex.o(i.MutexInit) for MutexInit
    nanovm.o(i.kernel_main) refers to mutex.o(.bss) for mutex_key
    nanovm.o(i.main) refers to nanovm.o(i.kernel_main) for kernel_main
    nanovm.o(i.main) refers to task.o(i.Task_init) for Task_init
    nanovm.o(i.main) refers to task.o(i.Task_start) for Task_start
    nanovm.o(i.main) refers to task.o(.bss) for MainThread_stack
    nanovm.o(i.main) refers to nanovm.o(i.Maintread_invoke) for Maintread_invoke
    stm32f4xx_it.o(i.SysTick_Handler) refers to pwm.o(i.motor_pwm_generate) for motor_pwm_generate
    stm32f4xx_it.o(i.SysTick_Handler) refers to pwm.o(i.servo_pwm_generate) for servo_pwm_generate
    stm32f4xx_it.o(i.SysTick_Handler) refers to scheduler.o(i.kernel_tickhandler) for kernel_tickhandler
    stm32f4xx_it.o(i.TIM3_IRQHandler) refers to stm32f4xx_it.o(i.TIM_ClearITPendingBit) for TIM_ClearITPendingBit
    array.o(i.array_baload) refers to heap.o(i.heap_get_addr) for heap_get_addr
    array.o(i.array_bastore) refers to heap.o(i.heap_get_addr) for heap_get_addr
    array.o(i.array_faload) refers to heap.o(i.heap_get_addr) for heap_get_addr
    array.o(i.array_fastore) refers to heap.o(i.heap_get_addr) for heap_get_addr
    array.o(i.array_iaload) refers to heap.o(i.heap_get_addr) for heap_get_addr
    array.o(i.array_iastore) refers to heap.o(i.heap_get_addr) for heap_get_addr
    array.o(i.array_length) refers to heap.o(i.heap_get_len) for heap_get_len
    array.o(i.array_length) refers to heap.o(i.heap_get_addr) for heap_get_addr
    array.o(i.array_length) refers to array.o(i.array_typelen) for array_typelen
    array.o(i.array_new) refers to array.o(i.array_typelen) for array_typelen
    array.o(i.array_new) refers to heap.o(i.heap_alloc) for heap_alloc
    array.o(i.array_new) refers to heap.o(i.heap_get_addr) for heap_get_addr
    array.o(i.array_typelen) refers to error.o(i.error) for error
    error.o(i.error) refers to uart.o(i.uart_putc) for uart_putc
    heap.o(i.heap_alloc) refers to heap.o(i.heap_new_id) for heap_new_id
    heap.o(i.heap_alloc) refers to heap.o(i.heap_alloc_internal) for heap_alloc_internal
    heap.o(i.heap_alloc) refers to heap.o(i.heap_garbage_collect) for heap_garbage_collect
    heap.o(i.heap_alloc) refers to error.o(i.error) for error
    heap.o(i.heap_alloc_internal) refers to heap.o(.bss) for heap
    heap.o(i.heap_alloc_internal) refers to heap.o(.data) for heap_base
    heap.o(i.heap_fieldref) refers to heap.o(.data) for heap_base
    heap.o(i.heap_fieldref) refers to heap.o(.bss) for heap
    heap.o(i.heap_garbage_collect) refers to stack.o(i.stack_heap_id_in_use) for stack_heap_id_in_use
    heap.o(i.heap_garbage_collect) refers to heap.o(i.heap_fieldref) for heap_fieldref
    heap.o(i.heap_garbage_collect) refers to heap.o(i.heap_memcpy_up) for heap_memcpy_up
    heap.o(i.heap_garbage_collect) refers to error.o(i.error) for error
    heap.o(i.heap_garbage_collect) refers to heap.o(.data) for heap_base
    heap.o(i.heap_garbage_collect) refers to heap.o(.bss) for heap
    heap.o(i.heap_get_addr) refers to heap.o(i.heap_search) for heap_search
    heap.o(i.heap_get_addr) refers to error.o(i.error) for error
    heap.o(i.heap_get_base) refers to heap.o(.bss) for heap
    heap.o(i.heap_get_len) refers to heap.o(i.heap_search) for heap_search
    heap.o(i.heap_get_len) refers to error.o(i.error) for error
    heap.o(i.heap_init) refers to heap.o(.bss) for heap
    heap.o(i.heap_new_id) refers to heap.o(i.heap_search) for heap_search
    heap.o(i.heap_realloc) refers to heap.o(i.heap_garbage_collect) for heap_garbage_collect
    heap.o(i.heap_realloc) refers to heap.o(i.heap_search) for heap_search
    heap.o(i.heap_realloc) refers to heap.o(i.heap_alloc_internal) for heap_alloc_internal
    heap.o(i.heap_realloc) refers to error.o(i.error) for error
    heap.o(i.heap_realloc) refers to utils.o(i.utils_memcpy) for utils_memcpy
    heap.o(i.heap_realloc) refers to heap.o(.bss) for heap
    heap.o(i.heap_realloc) refers to heap.o(.data) for heap_base
    heap.o(i.heap_search) refers to heap.o(.data) for heap_base
    heap.o(i.heap_search) refers to heap.o(.bss) for heap
    heap.o(i.heap_show) refers to error.o(i.error) for error
    heap.o(i.heap_show) refers to heap.o(.data) for heap_base
    heap.o(i.heap_show) refers to heap.o(.bss) for heap
    heap.o(i.heap_steal) refers to error.o(i.error) for error
    heap.o(i.heap_steal) refers to heap.o(i.heap_garbage_collect) for heap_garbage_collect
    heap.o(i.heap_steal) refers to heap.o(.bss) for heap
    heap.o(i.heap_steal) refers to heap.o(.data) for heap_base
    heap.o(i.heap_unsteal) refers to error.o(i.error) for error
    heap.o(i.heap_unsteal) refers to heap.o(.bss) for heap
    heap.o(i.heap_unsteal) refers to heap.o(.data) for heap_base
    loader.o(i.loader_receive) refers to nvmfile.o(i.nvmfile_get_base) for nvmfile_get_base
    loader.o(i.loader_receive) refers to uart.o(i.uart_write_byte) for uart_write_byte
    loader.o(i.loader_receive) refers to delay.o(i.delay_ms) for delay_ms
    loader.o(i.loader_receive) refers to uart.o(i.uart_available) for uart_available
    loader.o(i.loader_receive) refers to nvmfile.o(i.nvmfile_write_initialize) for nvmfile_write_initialize
    loader.o(i.loader_receive) refers to nvmcomm1.o(i.uart_get_block) for uart_get_block
    loader.o(i.loader_receive) refers to nvmfile.o(i.nvmfile_write08) for nvmfile_write08
    loader.o(i.loader_receive) refers to nvmfile.o(i.nvmfile_write_finalize) for nvmfile_write_finalize
    native_formatter.o(i.format_bool) refers to nvmstring.o(i.native_strcpy) for native_strcpy
    native_formatter.o(i.format_float) refers to native_formatter.o(i.inttostr) for inttostr
    native_formatter.o(i.format_int) refers to native_formatter.o(i.inttostr) for inttostr
    native_formatter.o(i.make_format_descr) refers to nvmstring.o(i.native_getchar) for native_getchar
    native_formatter.o(i.native_formatter_invoke) refers to stack.o(i.stack_peek_addr) for stack_peek_addr
    native_formatter.o(i.native_formatter_invoke) refers to native_formatter.o(i.make_format_descr) for make_format_descr
    native_formatter.o(i.native_formatter_invoke) refers to stack.o(i.stack_peek_int) for stack_peek_int
    native_formatter.o(i.native_formatter_invoke) refers to native_formatter.o(i.format_int) for format_int
    native_formatter.o(i.native_formatter_invoke) refers to native_formatter.o(i.format_bool) for format_bool
    native_formatter.o(i.native_formatter_invoke) refers to stack.o(i.stack_peek_float) for stack_peek_float
    native_formatter.o(i.native_formatter_invoke) refers to native_formatter.o(i.format_float) for format_float
    native_formatter.o(i.native_formatter_invoke) refers to error.o(i.error) for error
    native_formatter.o(i.native_formatter_invoke) refers to heap.o(i.heap_alloc) for heap_alloc
    native_formatter.o(i.native_formatter_invoke) refers to heap.o(i.heap_get_addr) for heap_get_addr
    native_formatter.o(i.native_formatter_invoke) refers to nvmstring.o(i.native_strncpy) for native_strncpy
    native_formatter.o(i.native_formatter_invoke) refers to stack.o(i.stack_pop) for stack_pop
    native_formatter.o(i.native_formatter_invoke) refers to stack.o(i.stack_push) for stack_push
    native_math.o(i.native_math_invoke) refers to stack.o(i.stack_pop_float) for stack_pop_float
    native_math.o(i.native_math_invoke) refers to f2d.o(.text) for __aeabi_f2d
    native_math.o(i.native_math_invoke) refers to fabs.o(i.__hardfp_fabs) for __hardfp_fabs
    native_math.o(i.native_math_invoke) refers to d2f.o(.text) for __aeabi_d2f
    native_math.o(i.native_math_invoke) refers to vm.o(i.nvm_float2stack) for nvm_float2stack
    native_math.o(i.native_math_invoke) refers to stack.o(i.stack_push) for stack_push
    native_math.o(i.native_math_invoke) refers to stack.o(i.stack_pop_int) for stack_pop_int
    native_math.o(i.native_math_invoke) refers to acos.o(i.__hardfp_acos) for __hardfp_acos
    native_math.o(i.native_math_invoke) refers to asin.o(i.__hardfp_asin) for __hardfp_asin
    native_math.o(i.native_math_invoke) refers to atan.o(i.__hardfp_atan) for __hardfp_atan
    native_math.o(i.native_math_invoke) refers to atan2.o(i.__hardfp_atan2) for __hardfp_atan2
    native_math.o(i.native_math_invoke) refers to ceil.o(i.__hardfp_ceil) for __hardfp_ceil
    native_math.o(i.native_math_invoke) refers to cos.o(i.__hardfp_cos) for __hardfp_cos
    native_math.o(i.native_math_invoke) refers to exp.o(i.__hardfp_exp) for __hardfp_exp
    native_math.o(i.native_math_invoke) refers to floor.o(i.__hardfp_floor) for __hardfp_floor
    native_math.o(i.native_math_invoke) refers to log.o(i.__hardfp_log) for __hardfp_log
    native_math.o(i.native_math_invoke) refers to pow.o(i.__hardfp_pow) for __hardfp_pow
    native_math.o(i.native_math_invoke) refers to rand.o(.text) for rand
    native_math.o(i.native_math_invoke) refers to sin.o(i.__hardfp_sin) for __hardfp_sin
    native_math.o(i.native_math_invoke) refers to sqrt.o(i.__hardfp_sqrt) for __hardfp_sqrt
    native_math.o(i.native_math_invoke) refers to tan.o(i.__hardfp_tan) for __hardfp_tan
    native_math.o(i.native_math_invoke) refers to error.o(i.error) for error
    native_stdio.o(i.native_ftoa) refers to native_stdio.o(i.native_itoa) for native_itoa
    native_stdio.o(i.native_java_io_inputstream_invoke) refers to stack.o(i.stack_pop) for stack_pop
    native_stdio.o(i.native_java_io_inputstream_invoke) refers to uart.o(i.uart_available) for uart_available
    native_stdio.o(i.native_java_io_inputstream_invoke) refers to stack.o(i.stack_push) for stack_push
    native_stdio.o(i.native_java_io_inputstream_invoke) refers to uart.o(i.uart_read_byte) for uart_read_byte
    native_stdio.o(i.native_java_io_inputstream_invoke) refers to error.o(i.error) for error
    native_stdio.o(i.native_java_io_printstream_invoke) refers to stack.o(i.stack_pop_addr) for stack_pop_addr
    native_stdio.o(i.native_java_io_printstream_invoke) refers to native_stdio.o(i.native_print) for native_print
    native_stdio.o(i.native_java_io_printstream_invoke) refers to stack.o(i.stack_pop_int) for stack_pop_int
    native_stdio.o(i.native_java_io_printstream_invoke) refers to native_stdio.o(i.native_itoa) for native_itoa
    native_stdio.o(i.native_java_io_printstream_invoke) refers to uart.o(i.uart_putc) for uart_putc
    native_stdio.o(i.native_java_io_printstream_invoke) refers to stack.o(i.stack_pop_long) for stack_pop_long
    native_stdio.o(i.native_java_io_printstream_invoke) refers to native_stdio.o(i.native_ltoa) for native_ltoa
    native_stdio.o(i.native_java_io_printstream_invoke) refers to error.o(i.error) for error
    native_stdio.o(i.native_java_io_printstream_invoke) refers to stack.o(i.stack_pop) for stack_pop
    native_stdio.o(i.native_java_lang_stringbuffer_invoke) refers to stack.o(i.stack_pop_addr) for stack_pop_addr
    native_stdio.o(i.native_java_lang_stringbuffer_invoke) refers to stack.o(i.stack_peek_addr) for stack_peek_addr
    native_stdio.o(i.native_java_lang_stringbuffer_invoke) refers to nvmstring.o(i.native_strlen) for native_strlen
    native_stdio.o(i.native_java_lang_stringbuffer_invoke) refers to stack.o(i.stack_peek) for stack_peek
    native_stdio.o(i.native_java_lang_stringbuffer_invoke) refers to heap.o(i.heap_realloc) for heap_realloc
    native_stdio.o(i.native_java_lang_stringbuffer_invoke) refers to heap.o(i.heap_get_addr) for heap_get_addr
    native_stdio.o(i.native_java_lang_stringbuffer_invoke) refers to nvmstring.o(i.native_strcpy) for native_strcpy
    native_stdio.o(i.native_java_lang_stringbuffer_invoke) refers to stack.o(i.stack_pop) for stack_pop
    native_stdio.o(i.native_java_lang_stringbuffer_invoke) refers to stack.o(i.stack_peek_int) for stack_peek_int
    native_stdio.o(i.native_java_lang_stringbuffer_invoke) refers to native_stdio.o(i.native_itoa) for native_itoa
    native_stdio.o(i.native_java_lang_stringbuffer_invoke) refers to stack.o(i.stack_peek_float) for stack_peek_float
    native_stdio.o(i.native_java_lang_stringbuffer_invoke) refers to native_stdio.o(i.native_ftoa) for native_ftoa
    native_stdio.o(i.native_java_lang_stringbuffer_invoke) refers to stack.o(i.stack_peek_long) for stack_peek_long
    native_stdio.o(i.native_java_lang_stringbuffer_invoke) refers to native_stdio.o(i.native_ltoa) for native_ltoa
    native_stdio.o(i.native_java_lang_stringbuffer_invoke) refers to stack.o(i.stack_peek_double) for stack_peek_double
    native_stdio.o(i.native_java_lang_stringbuffer_invoke) refers to native_stdio.o(i.native_dtoa) for native_dtoa
    native_stdio.o(i.native_java_lang_stringbuffer_invoke) refers to utils.o(i.utils_strlen) for utils_strlen
    native_stdio.o(i.native_java_lang_stringbuffer_invoke) refers to heap.o(i.heap_alloc) for heap_alloc
    native_stdio.o(i.native_java_lang_stringbuffer_invoke) refers to nvmstring.o(i.native_strcat) for native_strcat
    native_stdio.o(i.native_java_lang_stringbuffer_invoke) refers to stack.o(i.stack_push) for stack_push
    native_stdio.o(i.native_java_lang_stringbuffer_invoke) refers to error.o(i.error) for error
    native_stdio.o(i.native_ltoa) refers to uldiv.o(.text) for __aeabi_uldivmod
    native_stdio.o(i.native_ltoa) refers to ldiv.o(.text) for __aeabi_ldivmod
    native_stdio.o(i.native_print) refers to uart.o(i.uart_putc) for uart_putc
    native_stdio.o(i.native_print) refers to nvmfile.o(i.nvmfile_read08) for nvmfile_read08
    nvmcomm1.o(i.uart_get_block) refers to delay.o(i.delay_ms) for delay_ms
    nvmcomm1.o(i.uart_get_block) refers to uart.o(i.uart_available) for uart_available
    nvmcomm1.o(i.uart_get_block) refers to uart.o(i.uart_read_byte) for uart_read_byte
    nvmfile.o(i.nvmfile_call_main) refers to nvmfile.o(i.nvmfile_get_method_hdr) for nvmfile_get_method_hdr
    nvmfile.o(i.nvmfile_call_main) refers to nvmfile.o(i.nvmfile_read08) for nvmfile_read08
    nvmfile.o(i.nvmfile_call_main) refers to vm.o(i.vm_run) for vm_run
    nvmfile.o(i.nvmfile_call_main) refers to nvmfile.o(i.nvmfile_read16) for nvmfile_read16
    nvmfile.o(i.nvmfile_call_main) refers to nvmfile.o(.data) for nvmfile
    nvmfile.o(i.nvmfile_get_addr) refers to nvmfile.o(i.nvmfile_read16) for nvmfile_read16
    nvmfile.o(i.nvmfile_get_addr) refers to nvmfile.o(.data) for nvmfile
    nvmfile.o(i.nvmfile_get_base) refers to nvmfile.o(.data) for nvmfile
    nvmfile.o(i.nvmfile_get_class_fields) refers to nvmfile.o(i.nvmfile_read08) for nvmfile_read08
    nvmfile.o(i.nvmfile_get_class_fields) refers to nvmfile.o(.data) for nvmfile
    nvmfile.o(i.nvmfile_get_constant) refers to nvmfile.o(i.nvmfile_read16) for nvmfile_read16
    nvmfile.o(i.nvmfile_get_constant) refers to nvmfile.o(i.nvmfile_read32) for nvmfile_read32
    nvmfile.o(i.nvmfile_get_constant) refers to nvmfile.o(.data) for nvmfile_constant_count
    nvmfile.o(i.nvmfile_get_constant64) refers to nvmfile.o(i.nvmfile_read16) for nvmfile_read16
    nvmfile.o(i.nvmfile_get_constant64) refers to nvmfile.o(i.nvmfile_read64) for nvmfile_read64
    nvmfile.o(i.nvmfile_get_constant64) refers to nvmfile.o(.data) for nvmfile
    nvmfile.o(i.nvmfile_get_method_by_class_and_id) refers to nvmfile.o(i.nvmfile_get_method_by_fixed_class_and_id) for nvmfile_get_method_by_fixed_class_and_id
    nvmfile.o(i.nvmfile_get_method_by_class_and_id) refers to nvmfile.o(i.nvmfile_read08) for nvmfile_read08
    nvmfile.o(i.nvmfile_get_method_by_class_and_id) refers to nvmfile.o(.data) for nvmfile
    nvmfile.o(i.nvmfile_get_method_by_fixed_class_and_id) refers to nvmfile.o(i.nvmfile_get_method_hdr) for nvmfile_get_method_hdr
    nvmfile.o(i.nvmfile_get_method_by_fixed_class_and_id) refers to nvmfile.o(i.nvmfile_read) for nvmfile_read
    nvmfile.o(i.nvmfile_get_method_by_fixed_class_and_id) refers to nvmfile.o(i.nvmfile_read08) for nvmfile_read08
    nvmfile.o(i.nvmfile_get_method_by_fixed_class_and_id) refers to nvmfile.o(.data) for nvmfile
    nvmfile.o(i.nvmfile_get_method_hdr) refers to nvmfile.o(i.nvmfile_read16) for nvmfile_read16
    nvmfile.o(i.nvmfile_get_method_hdr) refers to nvmfile.o(.data) for nvmfile
    nvmfile.o(i.nvmfile_get_static_fields) refers to nvmfile.o(i.nvmfile_read08) for nvmfile_read08
    nvmfile.o(i.nvmfile_get_static_fields) refers to nvmfile.o(.data) for nvmfile
    nvmfile.o(i.nvmfile_init) refers to nvmfile.o(i.nvmfile_read32) for nvmfile_read32
    nvmfile.o(i.nvmfile_init) refers to error.o(i.error) for error
    nvmfile.o(i.nvmfile_init) refers to nvmfile.o(i.nvmfile_read08) for nvmfile_read08
    nvmfile.o(i.nvmfile_init) refers to nvmfile.o(i.nvmfile_read16) for nvmfile_read16
    nvmfile.o(i.nvmfile_init) refers to nvmfile.o(.data) for nvmfile
    nvmfile.o(i.nvmfile_read) refers to memcpya.o(.text) for __aeabi_memcpy
    nvmfile.o(i.nvmfile_store) refers to memcpya.o(.text) for __aeabi_memcpy
    nvmfile.o(i.nvmfile_store) refers to nvmfile.o(.data) for nvmfile
    nvmstring.o(i.native_getchar) refers to nvmfile.o(i.nvmfile_read08) for nvmfile_read08
    nvmstring.o(i.native_strcat) refers to nvmstring.o(i.native_strcpy) for native_strcpy
    nvmstring.o(i.native_strcpy) refers to nvmfile.o(i.nvmfile_read08) for nvmfile_read08
    nvmstring.o(i.native_strlen) refers to nvmfile.o(i.nvmfile_read08) for nvmfile_read08
    nvmstring.o(i.native_strncat) refers to nvmstring.o(i.native_strncpy) for native_strncpy
    nvmstring.o(i.native_strncpy) refers to nvmfile.o(i.nvmfile_read08) for nvmfile_read08
    stack.o(i.stack_add_sp) refers to scheduler.o(.data) for current_task
    stack.o(i.stack_get_sp) refers to scheduler.o(.data) for current_task
    stack.o(i.stack_get_static) refers to scheduler.o(.data) for current_task
    stack.o(i.stack_heap_id_in_use) refers to scheduler.o(.data) for current_task
    stack.o(i.stack_init) refers to heap.o(i.heap_get_base) for heap_get_base
    stack.o(i.stack_init) refers to heap.o(i.heap_steal) for heap_steal
    stack.o(i.stack_init) refers to scheduler.o(.data) for current_task
    stack.o(i.stack_is_empty) refers to scheduler.o(.data) for current_task
    stack.o(i.stack_peek) refers to scheduler.o(.data) for current_task
    stack.o(i.stack_peek_addr) refers to vm.o(i.vm_get_addr) for vm_get_addr
    stack.o(i.stack_peek_addr) refers to scheduler.o(.data) for current_task
    stack.o(i.stack_peek_double) refers to vm.o(i.nvm_stack2double) for nvm_stack2double
    stack.o(i.stack_peek_double) refers to scheduler.o(.data) for current_task
    stack.o(i.stack_peek_float) refers to vm.o(i.nvm_stack2float) for nvm_stack2float
    stack.o(i.stack_peek_float) refers to scheduler.o(.data) for current_task
    stack.o(i.stack_peek_int) refers to vm.o(i.nvm_stack2int) for nvm_stack2int
    stack.o(i.stack_peek_int) refers to scheduler.o(.data) for current_task
    stack.o(i.stack_peek_long) refers to vm.o(i.nvm_stack2long) for nvm_stack2long
    stack.o(i.stack_peek_long) refers to scheduler.o(.data) for current_task
    stack.o(i.stack_pop) refers to scheduler.o(.data) for current_task
    stack.o(i.stack_pop_addr) refers to vm.o(i.vm_get_addr) for vm_get_addr
    stack.o(i.stack_pop_addr) refers to scheduler.o(.data) for current_task
    stack.o(i.stack_pop_double) refers to vm.o(i.nvm_stack2float) for nvm_stack2float
    stack.o(i.stack_pop_double) refers to f2d.o(.text) for __aeabi_f2d
    stack.o(i.stack_pop_double) refers to scheduler.o(.data) for current_task
    stack.o(i.stack_pop_float) refers to vm.o(i.nvm_stack2float) for nvm_stack2float
    stack.o(i.stack_pop_float) refers to scheduler.o(.data) for current_task
    stack.o(i.stack_pop_int) refers to vm.o(i.nvm_stack2int) for nvm_stack2int
    stack.o(i.stack_pop_int) refers to scheduler.o(.data) for current_task
    stack.o(i.stack_pop_long) refers to vm.o(i.nvm_stack2long) for nvm_stack2long
    stack.o(i.stack_pop_long) refers to scheduler.o(.data) for current_task
    stack.o(i.stack_push) refers to scheduler.o(.data) for current_task
    stack.o(i.stack_push64) refers to llushr.o(.text) for __aeabi_llsr
    stack.o(i.stack_push64) refers to scheduler.o(.data) for current_task
    stack.o(i.stack_save_base) refers to stack.o(i.stack_get_sp) for stack_get_sp
    stack.o(i.stack_save_base) refers to scheduler.o(.data) for current_task
    stack.o(i.stack_set_static) refers to scheduler.o(.data) for current_task
    uart.o(i.PrintString) refers to uart.o(i.uart_putc) for uart_putc
    uart.o(i.STM_EVAL_COMInit) refers to stm32f4xx_rcc.o(i.RCC_AHB1PeriphClockCmd) for RCC_AHB1PeriphClockCmd
    uart.o(i.STM_EVAL_COMInit) refers to stm32f4xx_rcc.o(i.RCC_APB1PeriphClockCmd) for RCC_APB1PeriphClockCmd
    uart.o(i.STM_EVAL_COMInit) refers to stm32f4xx_gpio.o(i.GPIO_PinAFConfig) for GPIO_PinAFConfig
    uart.o(i.STM_EVAL_COMInit) refers to stm32f4xx_gpio.o(i.GPIO_Init) for GPIO_Init
    uart.o(i.STM_EVAL_COMInit) refers to stm32f4xx_usart.o(i.USART_Init) for USART_Init
    uart.o(i.STM_EVAL_COMInit) refers to stm32f4xx_usart.o(i.USART_Cmd) for USART_Cmd
    uart.o(i.STM_EVAL_COMInit) refers to uart.o(.constdata) for COM_TX_PORT_CLK
    uart.o(i.STM_EVAL_COMInit) refers to uart.o(.data) for COM_TX_PORT
    uart.o(i.uart_init) refers to uart.o(i.STM_EVAL_COMInit) for STM_EVAL_COMInit
    uart.o(i.uart_init) refers to stm32f4xx_gpio.o(i.GPIO_WriteBit) for GPIO_WriteBit
    uart.o(i.uart_init) refers to uart.o(.bss) for USART_InitStructure
    uart.o(i.uart_putc) refers to stm32f4xx_usart.o(i.USART_GetFlagStatus) for USART_GetFlagStatus
    uart.o(i.uart_putc) refers to stm32f4xx_usart.o(i.USART_SendData) for USART_SendData
    vm.o(i.nvm_stack2long) refers to llshl.o(.text) for __aeabi_llsl
    vm.o(i.vm_get_addr) refers to error.o(i.error) for error
    vm.o(i.vm_get_addr) refers to heap.o(i.heap_get_addr) for heap_get_addr
    vm.o(i.vm_get_addr) refers to nvmfile.o(i.nvmfile_get_addr) for nvmfile_get_addr
    vm.o(i.vm_init) refers to heap.o(i.heap_init) for heap_init
    vm.o(i.vm_init) refers to nvmfile.o(i.nvmfile_get_static_fields) for nvmfile_get_static_fields
    vm.o(i.vm_init) refers to stack.o(i.stack_init) for stack_init
    vm.o(i.vm_init) refers to stack.o(i.stack_push) for stack_push
    vm.o(i.vm_new) refers to nvmfile.o(i.nvmfile_get_class_fields) for nvmfile_get_class_fields
    vm.o(i.vm_new) refers to heap.o(i.heap_alloc) for heap_alloc
    vm.o(i.vm_new) refers to stack.o(i.stack_push) for stack_push
    vm.o(i.vm_new) refers to heap.o(i.heap_get_addr) for heap_get_addr
    vm.o(i.vm_new) refers to native_impl.o(i.native_new) for native_new
    vm.o(i.vm_run) refers to nvmfile.o(i.nvmfile_get_method_hdr) for nvmfile_get_method_hdr
    vm.o(i.vm_run) refers to nvmfile.o(i.nvmfile_read) for nvmfile_read
    vm.o(i.vm_run) refers to heap.o(i.heap_steal) for heap_steal
    vm.o(i.vm_run) refers to stack.o(i.stack_get_sp) for stack_get_sp
    vm.o(i.vm_run) refers to stack.o(i.stack_add_sp) for stack_add_sp
    vm.o(i.vm_run) refers to stack.o(i.stack_save_base) for stack_save_base
    vm.o(i.vm_run) refers to nvmfile.o(i.nvmfile_read08) for nvmfile_read08
    vm.o(i.vm_run) refers to stack.o(i.stack_pop_long) for stack_pop_long
    vm.o(i.vm_run) refers to stack.o(i.stack_push) for stack_push
    vm.o(i.vm_run) refers to stack.o(i.stack_pop) for stack_pop
    vm.o(i.vm_run) refers to stack.o(i.stack_pop_int) for stack_pop_int
    vm.o(i.vm_run) refers to vm.o(i.nvm_long2stack) for nvm_long2stack
    vm.o(i.vm_run) refers to stack.o(i.stack_push64) for stack_push64
    vm.o(i.vm_run) refers to vm.o(i.nvm_stack2int) for nvm_stack2int
    vm.o(i.vm_run) refers to stack.o(i.stack_pop_float) for stack_pop_float
    vm.o(i.vm_run) refers to vm.o(i.nvm_float2stack) for nvm_float2stack
    vm.o(i.vm_run) refers to scheduler.o(.data) for current_task
    vm.o(i.vm_run) refers to error.o(i.error) for error
    vm.o(i.vm_run) refers to ldiv.o(.text) for __aeabi_ldivmod
    vm.o(i.vm_run) refers to llshl.o(.text) for __aeabi_llsl
    vm.o(i.vm_run) refers to llsshr.o(.text) for __aeabi_lasr
    vm.o(i.vm_run) refers to stack.o(i.stack_is_empty) for stack_is_empty
    vm.o(i.vm_run) refers to heap.o(i.heap_unsteal) for heap_unsteal
    vm.o(i.vm_run) refers to stack.o(i.stack_peek) for stack_peek
    vm.o(i.vm_run) refers to stack.o(i.stack_get_static) for stack_get_static
    vm.o(i.vm_run) refers to stack.o(i.stack_set_static) for stack_set_static
    vm.o(i.vm_run) refers to nvmfile.o(i.nvmfile_get_constant) for nvmfile_get_constant
    vm.o(i.vm_run) refers to nvmfile.o(i.nvmfile_get_constant64) for nvmfile_get_constant64
    vm.o(i.vm_run) refers to heap.o(i.heap_get_addr) for heap_get_addr
    vm.o(i.vm_run) refers to nvmfile.o(i.nvmfile_get_method_by_class_and_id) for nvmfile_get_method_by_class_and_id
    vm.o(i.vm_run) refers to native_impl.o(i.native_invoke) for native_invoke
    vm.o(i.vm_run) refers to vm.o(i.vm_new) for vm_new
    vm.o(i.vm_run) refers to array.o(i.array_new) for array_new
    vm.o(i.vm_run) refers to array.o(i.array_length) for array_length
    vm.o(i.vm_run) refers to array.o(i.array_bastore) for array_bastore
    vm.o(i.vm_run) refers to array.o(i.array_iastore) for array_iastore
    vm.o(i.vm_run) refers to array.o(i.array_baload) for array_baload
    vm.o(i.vm_run) refers to array.o(i.array_iaload) for array_iaload
    vm.o(i.vm_run) refers to array.o(i.array_faload) for array_faload
    vm.o(i.vm_run) refers to array.o(i.array_fastore) for array_fastore
    vm.o(i.vm_run) refers to mutex.o(i.MutexLock) for MutexLock
    vm.o(i.vm_run) refers to mutex.o(i.MutexUnlock) for MutexUnlock
    vm.o(i.vm_run) refers to mutex.o(.bss) for mutex_key
    native_exception.o(i.native_exception_invoke) refers to stack.o(i.stack_pop) for stack_pop
    native_exception.o(i.native_exception_invoke) refers to stack.o(i.stack_push) for stack_push
    native_thread.o(i.native_thread_init) refers to heap.o(i.heap_alloc) for heap_alloc
    native_thread.o(i.native_thread_init) refers to stack.o(i.stack_push) for stack_push
    native_thread.o(i.native_thread_init) refers to heap.o(i.heap_get_addr) for heap_get_addr
    native_thread.o(i.native_thread_init) refers to task.o(.data) for SubThread_idx
    native_thread.o(i.native_thread_invoke) refers to stack.o(i.stack_pop) for stack_pop
    native_thread.o(i.native_thread_invoke) refers to heap.o(i.heap_get_addr) for heap_get_addr
    native_thread.o(i.native_thread_invoke) refers to task.o(i.Task_init) for Task_init
    native_thread.o(i.native_thread_invoke) refers to task.o(i.Task_start) for Task_start
    native_thread.o(i.native_thread_invoke) refers to task.o(.bss) for SubThread_stack
    native_thread.o(i.native_thread_invoke) refers to vm.o(i.vm_run) for vm_run
    native_thread.o(i.native_thread_invoke) refers to heap.o(.bss) for heap
    native_thread.o(i.native_thread_invoke) refers to heap.o(.data) for heap_base
    stm32f4_discovery.o(i.STM_EVAL_LEDInit) refers to stm32f4xx_rcc.o(i.RCC_AHB1PeriphClockCmd) for RCC_AHB1PeriphClockCmd
    stm32f4_discovery.o(i.STM_EVAL_LEDInit) refers to stm32f4xx_gpio.o(i.GPIO_Init) for GPIO_Init
    stm32f4_discovery.o(i.STM_EVAL_LEDInit) refers to stm32f4_discovery.o(.constdata) for GPIO_CLK
    stm32f4_discovery.o(i.STM_EVAL_LEDInit) refers to stm32f4_discovery.o(.data) for GPIO_PORT
    stm32f4_discovery.o(i.STM_EVAL_LEDOff) refers to stm32f4_discovery.o(.constdata) for GPIO_PIN
    stm32f4_discovery.o(i.STM_EVAL_LEDOff) refers to stm32f4_discovery.o(.data) for GPIO_PORT
    stm32f4_discovery.o(i.STM_EVAL_LEDOn) refers to stm32f4_discovery.o(.constdata) for GPIO_PIN
    stm32f4_discovery.o(i.STM_EVAL_LEDOn) refers to stm32f4_discovery.o(.data) for GPIO_PORT
    stm32f4_discovery.o(i.STM_EVAL_LEDToggle) refers to stm32f4_discovery.o(.data) for GPIO_PORT
    stm32f4_discovery.o(i.STM_EVAL_LEDToggle) refers to stm32f4_discovery.o(.constdata) for GPIO_PIN
    stm32f4_discovery.o(i.STM_EVAL_PBGetState) refers to stm32f4xx_gpio.o(i.GPIO_ReadInputDataBit) for GPIO_ReadInputDataBit
    stm32f4_discovery.o(i.STM_EVAL_PBGetState) refers to stm32f4_discovery.o(.constdata) for BUTTON_PIN
    stm32f4_discovery.o(i.STM_EVAL_PBGetState) refers to stm32f4_discovery.o(.data) for BUTTON_PORT
    stm32f4_discovery.o(i.STM_EVAL_PBInit) refers to stm32f4xx_rcc.o(i.RCC_AHB1PeriphClockCmd) for RCC_AHB1PeriphClockCmd
    stm32f4_discovery.o(i.STM_EVAL_PBInit) refers to stm32f4xx_rcc.o(i.RCC_APB2PeriphClockCmd) for RCC_APB2PeriphClockCmd
    stm32f4_discovery.o(i.STM_EVAL_PBInit) refers to stm32f4xx_gpio.o(i.GPIO_Init) for GPIO_Init
    stm32f4_discovery.o(i.STM_EVAL_PBInit) refers to stm32f4xx_syscfg.o(i.SYSCFG_EXTILineConfig) for SYSCFG_EXTILineConfig
    stm32f4_discovery.o(i.STM_EVAL_PBInit) refers to stm32f4xx_exti.o(i.EXTI_Init) for EXTI_Init
    stm32f4_discovery.o(i.STM_EVAL_PBInit) refers to misc.o(i.NVIC_Init) for NVIC_Init
    stm32f4_discovery.o(i.STM_EVAL_PBInit) refers to stm32f4_discovery.o(.constdata) for BUTTON_CLK
    stm32f4_discovery.o(i.STM_EVAL_PBInit) refers to stm32f4_discovery.o(.data) for BUTTON_PORT
    stm32f4xx_rcc.o(i.RCC_GetClocksFreq) refers to stm32f4xx_rcc.o(.data) for APBAHBPrescTable
    stm32f4xx_rcc.o(i.RCC_WaitForHSEStartUp) refers to stm32f4xx_rcc.o(i.RCC_GetFlagStatus) for RCC_GetFlagStatus
    stm32f4xx_gpio.o(i.GPIO_DeInit) refers to stm32f4xx_rcc.o(i.RCC_AHB1PeriphResetCmd) for RCC_AHB1PeriphResetCmd
    stm32f4xx_syscfg.o(i.SYSCFG_DeInit) refers to stm32f4xx_rcc.o(i.RCC_APB2PeriphResetCmd) for RCC_APB2PeriphResetCmd
    stm32f4xx_usart.o(i.USART_DeInit) refers to stm32f4xx_rcc.o(i.RCC_APB2PeriphResetCmd) for RCC_APB2PeriphResetCmd
    stm32f4xx_usart.o(i.USART_DeInit) refers to stm32f4xx_rcc.o(i.RCC_APB1PeriphResetCmd) for RCC_APB1PeriphResetCmd
    stm32f4xx_usart.o(i.USART_Init) refers to stm32f4xx_rcc.o(i.RCC_GetClocksFreq) for RCC_GetClocksFreq
    adc.o(i.ADC_Conversion_Data) refers to adc.o(i.ADC_RegularChannelConfig) for ADC_RegularChannelConfig
    adc.o(i.ADC_Conversion_Data) refers to adc.o(i.ADC_SoftwareStartConv) for ADC_SoftwareStartConv
    adc.o(i.ADC_Conversion_Data) refers to adc.o(i.ADC_GetFlagStatus) for ADC_GetFlagStatus
    adc.o(i.adc_init) refers to stm32f4xx_rcc.o(i.RCC_AHB1PeriphClockCmd) for RCC_AHB1PeriphClockCmd
    adc.o(i.adc_init) refers to stm32f4xx_gpio.o(i.GPIO_Init) for GPIO_Init
    adc.o(i.adc_init) refers to stm32f4xx_rcc.o(i.RCC_APB2PeriphClockCmd) for RCC_APB2PeriphClockCmd
    adc.o(i.adc_init) refers to adc.o(i.ADC_CommonInit) for ADC_CommonInit
    adc.o(i.adc_init) refers to adc.o(i.ADC_Init) for ADC_Init
    adc.o(i.adc_init) refers to adc.o(i.ADC_Cmd) for ADC_Cmd
    adc.o(i.adc_read) refers to adc.o(i.ADC_Conversion_Data) for ADC_Conversion_Data
    adc.o(i.adc_read) refers to adc.o(.data) for ch_table
    adc.o(i.stm_adc_init) refers to adc.o(.bss) for adc_enable_flag
    adc.o(i.stm_adc_status) refers to adc.o(.bss) for adc_enable_flag
    display.o(i.display_clear) refers to display.o(i.display_cmd) for display_cmd
    display.o(i.display_clear) refers to delay.o(i.delay_ms) for delay_ms
    display.o(i.display_cursor) refers to display.o(i.display_cmd) for display_cmd
    display.o(i.display_cursor) refers to delay.o(i.delay_us) for delay_us
    display.o(i.display_out) refers to display.o(i.display_data) for display_data
    display.o(i.display_print) refers to display.o(i.display_data) for display_data
    ir_rc5.o(i.ir_read) refers to ir_rc5.o(.data) for ir_data
    mouse.o(i.maus_image_prepare) refers to mouse.o(i.maus_sens_write) for maus_sens_write
    mouse.o(i.maus_image_prepare) refers to mouse.o(.data) for firstRead
    mouse.o(i.maus_image_read) refers to mouse.o(i.maus_sens_read) for maus_sens_read
    mouse.o(i.maus_image_read) refers to mouse.o(.data) for firstRead
    mouse.o(i.maus_sens_read) refers to mouse.o(i.maus_sens_writeByte) for maus_sens_writeByte
    mouse.o(i.maus_sens_read) refers to delay.o(i.delay_us) for delay_us
    mouse.o(i.maus_sens_read) refers to mouse.o(i.maus_sens_readByte) for maus_sens_readByte
    mouse.o(i.maus_sens_write) refers to mouse.o(i.maus_sens_writeByte) for maus_sens_writeByte
    mouse.o(i.maus_sens_write) refers to delay.o(i.delay_us) for delay_us
    native_bot.o(i.native_ctbot_bot_invoke) refers to stack.o(i.stack_push) for stack_push
    native_bot.o(i.native_ctbot_bot_invoke) refers to stack.o(i.stack_pop_int) for stack_pop_int
    native_bot.o(i.native_ctbot_bot_invoke) refers to shift.o(i.shift_data) for shift_data
    native_bot.o(i.native_ctbot_bot_invoke) refers to shift.o(.data) for shift_reg_ena
    native_clock.o(i.TIM_Config) refers to stm32f4xx_rcc.o(i.RCC_APB1PeriphClockCmd) for RCC_APB1PeriphClockCmd
    native_clock.o(i.TIM_Config) refers to pwm.o(i.TIM_TimeBaseInit) for TIM_TimeBaseInit
    native_clock.o(i.TIM_Config) refers to pwm.o(i.TIM_Cmd) for TIM_Cmd
    native_clock.o(i.TIM_Config) refers to system_stm32f4xx.o(.data) for SystemCoreClock
    native_clock.o(i.native_ctbot_clock_init) refers to native_clock.o(i.TIM_Config) for TIM_Config
    native_clock.o(i.native_ctbot_clock_invoke) refers to stack.o(i.stack_pop_int) for stack_pop_int
    native_clock.o(i.native_ctbot_clock_invoke) refers to delay.o(i.delay_ms) for delay_ms
    native_clock.o(i.native_ctbot_clock_invoke) refers to delay.o(i.delay_us) for delay_us
    native_clock.o(i.native_ctbot_clock_invoke) refers to stack.o(i.stack_push) for stack_push
    native_display.o(i.native_ctbot_display_init) refers to display.o(i.display_init) for display_init
    native_display.o(i.native_ctbot_display_init) refers to display.o(i.display_cursor) for display_cursor
    native_display.o(i.native_ctbot_display_init) refers to display.o(i.display_print) for display_print
    native_display.o(i.native_ctbot_display_init) refers to delay.o(i.delay_ms) for delay_ms
    native_display.o(i.native_ctbot_display_init) refers to display.o(i.display_clear) for display_clear
    native_display.o(i.native_ctbot_display_invoke) refers to display.o(i.display_clear) for display_clear
    native_display.o(i.native_ctbot_display_invoke) refers to stack.o(i.stack_pop) for stack_pop
    native_display.o(i.native_ctbot_display_invoke) refers to display.o(i.display_cursor) for display_cursor
    native_display.o(i.native_ctbot_display_invoke) refers to stack.o(i.stack_pop_addr) for stack_pop_addr
    native_display.o(i.native_ctbot_display_invoke) refers to display.o(i.display_data) for display_data
    native_display.o(i.native_ctbot_display_invoke) refers to nvmfile.o(i.nvmfile_read08) for nvmfile_read08
    native_display.o(i.native_ctbot_display_invoke) refers to error.o(i.error) for error
    native_impl.o(i.TIM_Init) refers to stm32f4xx_rcc.o(i.RCC_APB1PeriphClockCmd) for RCC_APB1PeriphClockCmd
    native_impl.o(i.TIM_Init) refers to misc.o(i.NVIC_Init) for NVIC_Init
    native_impl.o(i.TIM_Init) refers to pwm.o(i.TIM_PrescalerConfig) for TIM_PrescalerConfig
    native_impl.o(i.TIM_Init) refers to pwm.o(i.TIM_OC1Init) for TIM_OC1Init
    native_impl.o(i.TIM_Init) refers to pwm.o(i.TIM_OC1PreloadConfig) for TIM_OC1PreloadConfig
    native_impl.o(i.TIM_Init) refers to pwm.o(i.TIM_ITConfig) for TIM_ITConfig
    native_impl.o(i.TIM_Init) refers to pwm.o(i.TIM_Cmd) for TIM_Cmd
    native_impl.o(i.TIM_Init) refers to stm32f4_discovery.o(.data) for NVIC_InitStructure
    native_impl.o(i.TIM_Init) refers to system_stm32f4xx.o(.data) for SystemCoreClock
    native_impl.o(i.TIM_Init) refers to pwm.o(.bss) for TIM_TimeBaseStructure
    native_impl.o(i.native_init) refers to native_clock.o(i.native_ctbot_clock_init) for native_ctbot_clock_init
    native_impl.o(i.native_init) refers to adc.o(i.adc_init) for adc_init
    native_impl.o(i.native_init) refers to uart.o(i.uart_init) for uart_init
    native_impl.o(i.native_init) refers to native_bot.o(i.native_ctbot_bot_init) for native_ctbot_bot_init
    native_impl.o(i.native_init) refers to native_distancesensor.o(i.native_ctbot_distsensor_init) for native_ctbot_distsensor_init
    native_impl.o(i.native_init) refers to native_edgedetector.o(i.native_ctbot_edgedetector_init) for native_ctbot_edgedetector_init
    native_impl.o(i.native_init) refers to native_irreceiver.o(i.native_ctbot_irreceiver_init) for native_ctbot_irreceiver_init
    native_impl.o(i.native_init) refers to native_ldrsensor.o(i.native_ctbot_ldrsensor_init) for native_ctbot_ldrsensor_init
    native_impl.o(i.native_init) refers to native_lightbarrier.o(i.native_ctbot_lightbarrier_init) for native_ctbot_lightbarrier_init
    native_impl.o(i.native_init) refers to native_linedetector.o(i.native_ctbot_linedetector_init) for native_ctbot_linedetector_init
    native_impl.o(i.native_init) refers to native_motor.o(i.native_ctbot_motor_init) for native_ctbot_motor_init
    native_impl.o(i.native_init) refers to native_mouse.o(i.native_ctbot_mouse_init) for native_ctbot_mouse_init
    native_impl.o(i.native_init) refers to native_servo.o(i.native_ctbot_servo_init) for native_ctbot_servo_init
    native_impl.o(i.native_init) refers to native_shuttersensor.o(i.native_ctbot_shuttersensor_init) for native_ctbot_shuttersensor_init
    native_impl.o(i.native_init) refers to native_wheelencoder.o(i.native_ctbot_wheelencoder_init) for native_ctbot_wheelencoder_init
    native_impl.o(i.native_init) refers to shift.o(i.shift_data) for shift_data
    native_impl.o(i.native_init) refers to delay.o(i.delay_ms) for delay_ms
    native_impl.o(i.native_init) refers to system_stm32f4xx.o(.data) for SystemCoreClock
    native_impl.o(i.native_invoke) refers to native_impl.o(i.native_java_lang_object_invoke) for native_java_lang_object_invoke
    native_impl.o(i.native_invoke) refers to native_stdio.o(i.native_java_io_printstream_invoke) for native_java_io_printstream_invoke
    native_impl.o(i.native_invoke) refers to native_stdio.o(i.native_java_io_inputstream_invoke) for native_java_io_inputstream_invoke
    native_impl.o(i.native_invoke) refers to native_stdio.o(i.native_java_lang_stringbuffer_invoke) for native_java_lang_stringbuffer_invoke
    native_impl.o(i.native_invoke) refers to native_math.o(i.native_math_invoke) for native_math_invoke
    native_impl.o(i.native_invoke) refers to native_exception.o(i.native_exception_invoke) for native_exception_invoke
    native_impl.o(i.native_invoke) refers to native_thread.o(i.native_thread_invoke) for native_thread_invoke
    native_impl.o(i.native_invoke) refers to native_formatter.o(i.native_formatter_invoke) for native_formatter_invoke
    native_impl.o(i.native_invoke) refers to native_bot.o(i.native_ctbot_bot_invoke) for native_ctbot_bot_invoke
    native_impl.o(i.native_invoke) refers to native_clock.o(i.native_ctbot_clock_invoke) for native_ctbot_clock_invoke
    native_impl.o(i.native_invoke) refers to native_display.o(i.native_ctbot_display_invoke) for native_ctbot_display_invoke
    native_impl.o(i.native_invoke) refers to native_distancesensor.o(i.native_ctbot_distsensor_invoke) for native_ctbot_distsensor_invoke
    native_impl.o(i.native_invoke) refers to native_edgedetector.o(i.native_ctbot_edgedetector_invoke) for native_ctbot_edgedetector_invoke
    native_impl.o(i.native_invoke) refers to native_irreceiver.o(i.native_ctbot_irreceiver_invoke) for native_ctbot_irreceiver_invoke
    native_impl.o(i.native_invoke) refers to native_ldrsensor.o(i.native_ctbot_ldrsensor_invoke) for native_ctbot_ldrsensor_invoke
    native_impl.o(i.native_invoke) refers to native_leds.o(i.native_ctbot_leds_invoke) for native_ctbot_leds_invoke
    native_impl.o(i.native_invoke) refers to native_linedetector.o(i.native_ctbot_linedetector_invoke) for native_ctbot_linedetector_invoke
    native_impl.o(i.native_invoke) refers to native_lightbarrier.o(i.native_ctbot_lightbarrier_invoke) for native_ctbot_lightbarrier_invoke
    native_impl.o(i.native_invoke) refers to native_motor.o(i.native_ctbot_motor_invoke) for native_ctbot_motor_invoke
    native_impl.o(i.native_invoke) refers to native_mouse.o(i.native_ctbot_mouse_invoke) for native_ctbot_mouse_invoke
    native_impl.o(i.native_invoke) refers to native_servo.o(i.native_ctbot_servo_invoke) for native_ctbot_servo_invoke
    native_impl.o(i.native_invoke) refers to native_shuttersensor.o(i.native_ctbot_shuttersensor_invoke) for native_ctbot_shuttersensor_invoke
    native_impl.o(i.native_invoke) refers to native_wheelencoder.o(i.native_ctbot_wheelencoder_invoke) for native_ctbot_wheelencoder_invoke
    native_impl.o(i.native_invoke) refers to error.o(i.error) for error
    native_impl.o(i.native_java_lang_object_invoke) refers to stack.o(i.stack_pop) for stack_pop
    native_impl.o(i.native_java_lang_object_invoke) refers to error.o(i.error) for error
    native_impl.o(i.native_new) refers to heap.o(i.heap_alloc) for heap_alloc
    native_impl.o(i.native_new) refers to stack.o(i.stack_push) for stack_push
    native_impl.o(i.native_new) refers to heap.o(i.heap_get_addr) for heap_get_addr
    native_impl.o(i.native_new) refers to native_thread.o(i.native_thread_init) for native_thread_init
    native_impl.o(i.native_new) refers to error.o(i.error) for error
    native_irreceiver.o(i.native_ctbot_irreceiver_init) refers to ir_rc5.o(i.ir_init) for ir_init
    native_irreceiver.o(i.native_ctbot_irreceiver_invoke) refers to ir_rc5.o(i.ir_read) for ir_read
    native_irreceiver.o(i.native_ctbot_irreceiver_invoke) refers to stack.o(i.stack_push) for stack_push
    native_ldrsensor.o(i.native_ctbot_ldrsensor_invoke) refers to adc.o(i.adc_read) for adc_read
    native_ldrsensor.o(i.native_ctbot_ldrsensor_invoke) refers to stack.o(i.stack_push) for stack_push
    native_ldrsensor.o(i.native_ctbot_ldrsensor_invoke) refers to native_ldrsensor.o(.data) for value_sen_l
    native_leds.o(i.native_ctbot_leds_init) refers to stm32f4_discovery.o(i.STM_EVAL_LEDInit) for STM_EVAL_LEDInit
    native_leds.o(i.native_ctbot_leds_invoke) refers to stack.o(i.stack_pop_int) for stack_pop_int
    native_leds.o(i.native_ctbot_leds_invoke) refers to stm32f4_discovery.o(i.STM_EVAL_LEDOn) for STM_EVAL_LEDOn
    native_leds.o(i.native_ctbot_leds_invoke) refers to stack.o(i.stack_push) for stack_push
    native_leds.o(i.native_ctbot_leds_invoke) refers to native_leds.o(.data) for leds
    native_lightbarrier.o(i.native_ctbot_lightbarrier_invoke) refers to stack.o(i.stack_push) for stack_push
    native_lightbarrier.o(i.native_ctbot_lightbarrier_invoke) refers to stack.o(i.stack_pop_int) for stack_pop_int
    native_lightbarrier.o(i.native_ctbot_lightbarrier_invoke) refers to shift.o(i.shift_data) for shift_data
    native_lightbarrier.o(i.native_ctbot_lightbarrier_invoke) refers to shift.o(.data) for shift_reg_ena
    native_linedetector.o(i.native_ctbot_linedetector_invoke) refers to stack.o(i.stack_pop_int) for stack_pop_int
    native_linedetector.o(i.native_ctbot_linedetector_invoke) refers to adc.o(i.adc_read) for adc_read
    native_linedetector.o(i.native_ctbot_linedetector_invoke) refers to stack.o(i.stack_push) for stack_push
    native_linedetector.o(i.native_ctbot_linedetector_invoke) refers to shift.o(i.shift_data) for shift_data
    native_linedetector.o(i.native_ctbot_linedetector_invoke) refers to native_linedetector.o(.data) for test_argdata
    native_linedetector.o(i.native_ctbot_linedetector_invoke) refers to shift.o(.data) for shift_reg_ena
    native_motor.o(i.native_ctbot_motor_init) refers to pwm.o(i.motor_pwm_init) for motor_pwm_init
    native_motor.o(i.native_ctbot_motor_invoke) refers to stack.o(i.stack_pop_int) for stack_pop_int
    native_motor.o(i.native_ctbot_motor_invoke) refers to pwm.o(i.set_motor_speed) for set_motor_speed
    native_motor.o(i.native_ctbot_motor_invoke) refers to stack.o(i.stack_push) for stack_push
    native_motor.o(i.native_ctbot_motor_invoke) refers to pid.o(i.pid_reset) for pid_reset
    native_motor.o(i.native_ctbot_motor_invoke) refers to pid.o(.data) for pid_right_value
    native_motor.o(i.native_ctbot_motor_invoke) refers to pwm.o(.data) for pwm_motor_l
    native_mouse.o(i.native_ctbot_mouse_init) refers to mouse.o(i.maus_sens_init) for maus_sens_init
    native_mouse.o(i.native_ctbot_mouse_invoke) refers to mouse.o(i.maus_sens_read) for maus_sens_read
    native_mouse.o(i.native_ctbot_mouse_invoke) refers to stack.o(i.stack_push) for stack_push
    native_mouse.o(i.native_ctbot_mouse_invoke) refers to mouse.o(i.maus_image_prepare) for maus_image_prepare
    native_mouse.o(i.native_ctbot_mouse_invoke) refers to mouse.o(i.maus_image_read) for maus_image_read
    native_mouse.o(i.native_ctbot_mouse_invoke) refers to mouse.o(i.maus_sens_write) for maus_sens_write
    native_mouse.o(i.native_ctbot_mouse_invoke) refers to error.o(i.error) for error
    native_servo.o(i.native_ctbot_servo_init) refers to pwm.o(i.servo_pwm_init) for servo_pwm_init
    native_servo.o(i.native_ctbot_servo_invoke) refers to stack.o(i.stack_pop_int) for stack_pop_int
    native_servo.o(i.native_ctbot_servo_invoke) refers to pwm.o(i.set_servo_position) for set_servo_position
    native_servo.o(i.native_ctbot_servo_invoke) refers to pwm.o(i.servo_release) for servo_release
    native_shuttersensor.o(i.native_ctbot_shuttersensor_invoke) refers to stack.o(i.stack_push) for stack_push
    native_shuttersensor.o(i.native_ctbot_shuttersensor_invoke) refers to stack.o(i.stack_pop_int) for stack_pop_int
    native_shuttersensor.o(i.native_ctbot_shuttersensor_invoke) refers to shift.o(i.shift_data) for shift_data
    native_shuttersensor.o(i.native_ctbot_shuttersensor_invoke) refers to shift.o(.data) for shift_reg_ena
    native_wheelencoder.o(i.native_ctbot_wheelencoder_init) refers to wheelencoder.o(i.wheelencoder_init) for wheelencoder_init
    native_wheelencoder.o(i.native_ctbot_wheelencoder_invoke) refers to stack.o(i.stack_push) for stack_push
    native_wheelencoder.o(i.native_ctbot_wheelencoder_invoke) refers to stack.o(i.stack_pop_int) for stack_pop_int
    native_wheelencoder.o(i.native_ctbot_wheelencoder_invoke) refers to shift.o(i.shift_data) for shift_data
    native_wheelencoder.o(i.native_ctbot_wheelencoder_invoke) refers to wheelencoder.o(.data) for wheelencoder_l
    native_wheelencoder.o(i.native_ctbot_wheelencoder_invoke) refers to shift.o(.data) for shift_reg_ena
    native_wheelencoder.o(i.native_ctbot_wheelencoder_invoke) refers to pid.o(.data) for pid_left_speed
    pid.o(i.pid_left_timer_int) refers to dflti.o(.text) for __aeabi_i2d
    pid.o(i.pid_left_timer_int) refers to dmul.o(.text) for __aeabi_dmul
    pid.o(i.pid_left_timer_int) refers to dadd.o(.text) for __aeabi_dadd
    pid.o(i.pid_left_timer_int) refers to dfixi.o(.text) for __aeabi_d2iz
    pid.o(i.pid_left_timer_int) refers to pid.o(.data) for pid_left_cnt
    pid.o(i.pid_left_timer_int) refers to pid.o(.bss) for pid_left_hist
    pid.o(i.pid_left_timer_int) refers to pwm.o(.data) for pwm_motor_l
    pid.o(i.pid_reset) refers to pid.o(.data) for pid_left_sum
    pid.o(i.pid_right_timer_int) refers to dflti.o(.text) for __aeabi_i2d
    pid.o(i.pid_right_timer_int) refers to dmul.o(.text) for __aeabi_dmul
    pid.o(i.pid_right_timer_int) refers to dadd.o(.text) for __aeabi_dsub
    pid.o(i.pid_right_timer_int) refers to dfixi.o(.text) for __aeabi_d2iz
    pid.o(i.pid_right_timer_int) refers to pid.o(.data) for pid_right_cnt
    pid.o(i.pid_right_timer_int) refers to pid.o(.bss) for pid_right_hist
    pid.o(i.pid_right_timer_int) refers to pwm.o(.data) for pwm_motor_r
    pwm.o(i.motor_pwm_generate) refers to stm32f4xx_gpio.o(i.GPIO_ResetBits) for GPIO_ResetBits
    pwm.o(i.motor_pwm_generate) refers to stm32f4xx_gpio.o(i.GPIO_SetBits) for GPIO_SetBits
    pwm.o(i.motor_pwm_generate) refers to pwm.o(.data) for pwm_value1
    pwm.o(i.motor_pwm_init) refers to stm32f4xx_rcc.o(i.RCC_AHB1PeriphClockCmd) for RCC_AHB1PeriphClockCmd
    pwm.o(i.motor_pwm_init) refers to stm32f4xx_gpio.o(i.GPIO_Init) for GPIO_Init
    pwm.o(i.motor_pwm_init) refers to stm32f4xx_gpio.o(i.GPIO_ResetBits) for GPIO_ResetBits
    pwm.o(i.servo_pwm_generate) refers to stm32f4xx_gpio.o(i.GPIO_SetBits) for GPIO_SetBits
    pwm.o(i.servo_pwm_generate) refers to stm32f4xx_gpio.o(i.GPIO_ResetBits) for GPIO_ResetBits
    pwm.o(i.servo_pwm_generate) refers to pwm.o(.bss) for servo_flag
    pwm.o(i.servo_pwm_generate) refers to pwm.o(.data) for servo_pwm_tick
    pwm.o(i.servo_pwm_init) refers to stm32f4xx_rcc.o(i.RCC_AHB1PeriphClockCmd) for RCC_AHB1PeriphClockCmd
    pwm.o(i.servo_pwm_init) refers to stm32f4xx_gpio.o(i.GPIO_Init) for GPIO_Init
    pwm.o(i.servo_pwm_init) refers to stm32f4xx_gpio.o(i.GPIO_ResetBits) for GPIO_ResetBits
    pwm.o(i.servo_release) refers to stm32f4xx_gpio.o(i.GPIO_ResetBits) for GPIO_ResetBits
    pwm.o(i.servo_release) refers to pwm.o(.bss) for servo_flag
    pwm.o(i.set_motor_speed) refers to pwm.o(.data) for pwm_value1
    pwm.o(i.set_servo_position) refers to pwm.o(.bss) for servo_value
    shift.o(i.shift_data) refers to shift.o(i.shift_data_out) for shift_data_out
    shift.o(i.shift_data) refers to shift.o(i.shift_clear) for shift_clear
    wheelencoder.o(i.wheelencoder_init) refers to wheelencoder.o(.data) for wheelencoder_l
    wheelencoder.o(i.wheelencoder_init) refers to pid.o(.data) for pid_left_cnt
    native_distancesensor.o(i.native_ctbot_distsensor_invoke) refers to adc.o(i.adc_read) for adc_read
    native_distancesensor.o(i.native_ctbot_distsensor_invoke) refers to stack.o(i.stack_push) for stack_push
    native_distancesensor.o(i.native_ctbot_distsensor_invoke) refers to stack.o(i.stack_pop_int) for stack_pop_int
    native_distancesensor.o(i.native_ctbot_distsensor_invoke) refers to shift.o(i.shift_data) for shift_data
    native_distancesensor.o(i.native_ctbot_distsensor_invoke) refers to native_distancesensor.o(.data) for value_dis_l
    native_distancesensor.o(i.native_ctbot_distsensor_invoke) refers to shift.o(.data) for shift_reg_ena
    native_edgedetector.o(i.native_ctbot_edgedetector_invoke) refers to adc.o(i.adc_read) for adc_read
    native_edgedetector.o(i.native_ctbot_edgedetector_invoke) refers to stack.o(i.stack_push) for stack_push
    native_edgedetector.o(i.native_ctbot_edgedetector_invoke) refers to stack.o(i.stack_pop_int) for stack_pop_int
    native_edgedetector.o(i.native_ctbot_edgedetector_invoke) refers to shift.o(i.shift_data) for shift_data
    native_edgedetector.o(i.native_ctbot_edgedetector_invoke) refers to native_edgedetector.o(.data) for value_edge_l
    native_edgedetector.o(i.native_ctbot_edgedetector_invoke) refers to shift.o(.data) for shift_reg_ena
    mutex.o(i.MutexLock) refers to context.o(.text) for IntSaveDisableIRQ
    mutex.o(i.MutexLock) refers to scheduler.o(i.Task_wait) for Task_wait
    mutex.o(i.MutexLock) refers to scheduler.o(i.Task_dequeue) for Task_dequeue
    mutex.o(i.MutexLock) refers to scheduler.o(i.Task_enqueue) for Task_enqueue
    mutex.o(i.MutexLock) refers to scheduler.o(.data) for current_task
    mutex.o(i.MutexUnlock) refers to context.o(.text) for IntSaveDisableIRQ
    mutex.o(i.MutexUnlock) refers to scheduler.o(i.Task_dequeue) for Task_dequeue
    mutex.o(i.MutexUnlock) refers to scheduler.o(i.Task_enqueue) for Task_enqueue
    mutex.o(i.MutexUnlock) refers to scheduler.o(i.Task_wakeup_all) for Task_wakeup_all
    mutex.o(i.MutexUnlock) refers to scheduler.o(.data) for current_task
    scheduler.o(i.Do_scheduling) refers to scheduler.o(i.Task_select) for Task_select
    scheduler.o(i.Do_scheduling) refers to context.o(.text) for Context_switch
    scheduler.o(i.Do_scheduling) refers to scheduler.o(.data) for current_task
    scheduler.o(i.Do_scheduling_isr) refers to scheduler.o(i.Task_select) for Task_select
    scheduler.o(i.Do_scheduling_isr) refers to context.o(.text) for Context_switch_isr
    scheduler.o(i.Do_scheduling_isr) refers to scheduler.o(.data) for current_task
    scheduler.o(i.Init_scheduler) refers to scheduler.o(.bss) for readyQ
    scheduler.o(i.Task_dequeue) refers to scheduler.o(.bss) for readyQ
    scheduler.o(i.Task_dequeue) refers to scheduler.o(.data) for mid_prio
    scheduler.o(i.Task_enqueue) refers to scheduler.o(.bss) for readyQ
    scheduler.o(i.Task_enqueue) refers to scheduler.o(.data) for mid_prio
    scheduler.o(i.Task_select) refers to scheduler.o(.data) for prio_map
    scheduler.o(i.Task_select) refers to scheduler.o(.bss) for low_prio
    scheduler.o(i.Task_wait) refers to scheduler.o(i.Task_dequeue) for Task_dequeue
    scheduler.o(i.Task_wait) refers to scheduler.o(i.Do_scheduling) for Do_scheduling
    scheduler.o(i.Task_wakeup) refers to scheduler.o(i.Task_dequeue) for Task_dequeue
    scheduler.o(i.Task_wakeup) refers to scheduler.o(i.Task_enqueue) for Task_enqueue
    scheduler.o(i.Task_wakeup) refers to scheduler.o(i.Do_scheduling) for Do_scheduling
    scheduler.o(i.Task_wakeup_all) refers to scheduler.o(i.Task_enqueue) for Task_enqueue
    scheduler.o(i.Task_wakeup_all) refers to scheduler.o(i.Do_scheduling) for Do_scheduling
    scheduler.o(i.kernel_tickhandler) refers to scheduler.o(i.Task_dequeue) for Task_dequeue
    scheduler.o(i.kernel_tickhandler) refers to scheduler.o(i.Task_enqueue) for Task_enqueue
    scheduler.o(i.kernel_tickhandler) refers to scheduler.o(i.Do_scheduling_isr) for Do_scheduling_isr
    scheduler.o(i.kernel_tickhandler) refers to scheduler.o(.data) for current_task
    scheduler.o(.data) refers to task.o(.bss) for idle_task
    task.o(i.Init_idle_task) refers to scheduler.o(i.Task_enqueue) for Task_enqueue
    task.o(i.Init_idle_task) refers to task.o(.bss) for idle_task
    task.o(i.Task_exit) refers to scheduler.o(i.Task_dequeue) for Task_dequeue
    task.o(i.Task_exit) refers to scheduler.o(i.Do_scheduling) for Do_scheduling
    task.o(i.Task_exit) refers to scheduler.o(.data) for current_task
    task.o(i.Task_getID) refers to scheduler.o(.data) for current_task
    task.o(i.Task_init) refers to task.o(i.Task_init_context) for Task_init_context
    task.o(i.Task_init_context) refers to task.o(i.Task_exit) for Task_exit
    task.o(i.Task_set_priority) refers to scheduler.o(i.Task_dequeue) for Task_dequeue
    task.o(i.Task_set_priority) refers to scheduler.o(i.Task_enqueue) for Task_enqueue
    task.o(i.Task_set_priority) refers to scheduler.o(i.Do_scheduling) for Do_scheduling
    task.o(i.Task_start) refers to scheduler.o(i.Task_enqueue) for Task_enqueue
    task.o(i.Task_start) refers to scheduler.o(i.Do_scheduling) for Do_scheduling
    task.o(i.Task_yield) refers to scheduler.o(i.Task_dequeue) for Task_dequeue
    task.o(i.Task_yield) refers to scheduler.o(i.Task_enqueue) for Task_enqueue
    task.o(i.Task_yield) refers to scheduler.o(i.Do_scheduling) for Do_scheduling
    task.o(i.Task_yield) refers to scheduler.o(.data) for current_task
    acos.o(i.__hardfp_acos) refers (Special) to iusefp.o(.text) for __I$use$fp
    acos.o(i.__hardfp_acos) refers to dadd.o(.text) for __aeabi_dadd
    acos.o(i.__hardfp_acos) refers to errno.o(i.__set_errno) for __set_errno
    acos.o(i.__hardfp_acos) refers to ddiv.o(.text) for __aeabi_ddiv
    acos.o(i.__hardfp_acos) refers to dmul.o(.text) for __aeabi_dmul
    acos.o(i.__hardfp_acos) refers to poly.o(i.__kernel_poly) for __kernel_poly
    acos.o(i.__hardfp_acos) refers to sqrt.o(i.sqrt) for sqrt
    acos.o(i.__hardfp_acos) refers to acos.o(.constdata) for .constdata
    acos.o(i.__softfp_acos) refers (Special) to iusefp.o(.text) for __I$use$fp
    acos.o(i.__softfp_acos) refers to acos.o(i.__hardfp_acos) for __hardfp_acos
    acos.o(i.acos) refers (Special) to iusefp.o(.text) for __I$use$fp
    acos.o(i.acos) refers to acos.o(i.__hardfp_acos) for __hardfp_acos
    acos.o(.constdata) refers (Special) to iusefp.o(.text) for __I$use$fp
    acos_x.o(i.____hardfp_acos$lsc) refers (Special) to iusefp.o(.text) for __I$use$fp
    acos_x.o(i.____hardfp_acos$lsc) refers to dadd.o(.text) for __aeabi_dadd
    acos_x.o(i.____hardfp_acos$lsc) refers to errno.o(i.__set_errno) for __set_errno
    acos_x.o(i.____hardfp_acos$lsc) refers to dmul.o(.text) for __aeabi_dmul
    acos_x.o(i.____hardfp_acos$lsc) refers to poly.o(i.__kernel_poly) for __kernel_poly
    acos_x.o(i.____hardfp_acos$lsc) refers to ddiv.o(.text) for __aeabi_ddiv
    acos_x.o(i.____hardfp_acos$lsc) refers to sqrt.o(i.sqrt) for sqrt
    acos_x.o(i.____hardfp_acos$lsc) refers to acos_x.o(.constdata) for .constdata
    acos_x.o(i.____softfp_acos$lsc) refers (Special) to iusefp.o(.text) for __I$use$fp
    acos_x.o(i.____softfp_acos$lsc) refers to acos_x.o(i.____hardfp_acos$lsc) for ____hardfp_acos$lsc
    acos_x.o(i.__acos$lsc) refers (Special) to iusefp.o(.text) for __I$use$fp
    acos_x.o(i.__acos$lsc) refers to acos_x.o(i.____hardfp_acos$lsc) for ____hardfp_acos$lsc
    acos_x.o(.constdata) refers (Special) to iusefp.o(.text) for __I$use$fp
    asin.o(i.__hardfp_asin) refers (Special) to iusefp.o(.text) for __I$use$fp
    asin.o(i.__hardfp_asin) refers to dadd.o(.text) for __aeabi_dadd
    asin.o(i.__hardfp_asin) refers to dmul.o(.text) for __aeabi_dmul
    asin.o(i.__hardfp_asin) refers to errno.o(i.__set_errno) for __set_errno
    asin.o(i.__hardfp_asin) refers to ddiv.o(.text) for __aeabi_ddiv
    asin.o(i.__hardfp_asin) refers to fpclassify.o(i.__ARM_fpclassify) for __ARM_fpclassify
    asin.o(i.__hardfp_asin) refers to dunder.o(i.__mathlib_dbl_underflow) for __mathlib_dbl_underflow
    asin.o(i.__hardfp_asin) refers to poly.o(i.__kernel_poly) for __kernel_poly
    asin.o(i.__hardfp_asin) refers to fabs.o(i.fabs) for fabs
    asin.o(i.__hardfp_asin) refers to sqrt.o(i.sqrt) for sqrt
    asin.o(i.__hardfp_asin) refers to asin.o(.constdata) for .constdata
    asin.o(i.__softfp_asin) refers (Special) to iusefp.o(.text) for __I$use$fp
    asin.o(i.__softfp_asin) refers to asin.o(i.__hardfp_asin) for __hardfp_asin
    asin.o(i.asin) refers (Special) to iusefp.o(.text) for __I$use$fp
    asin.o(i.asin) refers to asin.o(i.__hardfp_asin) for __hardfp_asin
    asin.o(.constdata) refers (Special) to iusefp.o(.text) for __I$use$fp
    asin_x.o(i.____hardfp_asin$lsc) refers (Special) to iusefp.o(.text) for __I$use$fp
    asin_x.o(i.____hardfp_asin$lsc) refers to dadd.o(.text) for __aeabi_dadd
    asin_x.o(i.____hardfp_asin$lsc) refers to dmul.o(.text) for __aeabi_dmul
    asin_x.o(i.____hardfp_asin$lsc) refers to errno.o(i.__set_errno) for __set_errno
    asin_x.o(i.____hardfp_asin$lsc) refers to poly.o(i.__kernel_poly) for __kernel_poly
    asin_x.o(i.____hardfp_asin$lsc) refers to ddiv.o(.text) for __aeabi_ddiv
    asin_x.o(i.____hardfp_asin$lsc) refers to fabs.o(i.fabs) for fabs
    asin_x.o(i.____hardfp_asin$lsc) refers to sqrt.o(i.sqrt) for sqrt
    asin_x.o(i.____hardfp_asin$lsc) refers to asin_x.o(.constdata) for .constdata
    asin_x.o(i.____softfp_asin$lsc) refers (Special) to iusefp.o(.text) for __I$use$fp
    asin_x.o(i.____softfp_asin$lsc) refers to asin_x.o(i.____hardfp_asin$lsc) for ____hardfp_asin$lsc
    asin_x.o(i.__asin$lsc) refers (Special) to iusefp.o(.text) for __I$use$fp
    asin_x.o(i.__asin$lsc) refers to asin_x.o(i.____hardfp_asin$lsc) for ____hardfp_asin$lsc
    asin_x.o(.constdata) refers (Special) to iusefp.o(.text) for __I$use$fp
    atan.o(i.__hardfp_atan) refers (Special) to iusefp.o(.text) for __I$use$fp
    atan.o(i.__hardfp_atan) refers to dadd.o(.text) for __aeabi_dadd
    atan.o(i.__hardfp_atan) refers to fpclassify.o(i.__ARM_fpclassify) for __ARM_fpclassify
    atan.o(i.__hardfp_atan) refers to dunder.o(i.__mathlib_dbl_underflow) for __mathlib_dbl_underflow
    atan.o(i.__hardfp_atan) refers to fabs.o(i.fabs) for fabs
    atan.o(i.__hardfp_atan) refers to dmul.o(.text) for __aeabi_dmul
    atan.o(i.__hardfp_atan) refers to ddiv.o(.text) for __aeabi_ddiv
    atan.o(i.__hardfp_atan) refers to poly.o(i.__kernel_poly) for __kernel_poly
    atan.o(i.__hardfp_atan) refers to atan.o(.constdata) for .constdata
    atan.o(i.__softfp_atan) refers (Special) to iusefp.o(.text) for __I$use$fp
    atan.o(i.__softfp_atan) refers to atan.o(i.__hardfp_atan) for __hardfp_atan
    atan.o(i.atan) refers (Special) to iusefp.o(.text) for __I$use$fp
    atan.o(i.atan) refers to atan.o(i.__hardfp_atan) for __hardfp_atan
    atan.o(.constdata) refers (Special) to iusefp.o(.text) for __I$use$fp
    atan_x.o(i.____hardfp_atan$lsc) refers (Special) to iusefp.o(.text) for __I$use$fp
    atan_x.o(i.____hardfp_atan$lsc) refers to dadd.o(.text) for __aeabi_dadd
    atan_x.o(i.____hardfp_atan$lsc) refers to fabs.o(i.fabs) for fabs
    atan_x.o(i.____hardfp_atan$lsc) refers to dmul.o(.text) for __aeabi_dmul
    atan_x.o(i.____hardfp_atan$lsc) refers to ddiv.o(.text) for __aeabi_ddiv
    atan_x.o(i.____hardfp_atan$lsc) refers to poly.o(i.__kernel_poly) for __kernel_poly
    atan_x.o(i.____hardfp_atan$lsc) refers to atan_x.o(.constdata) for .constdata
    atan_x.o(i.____softfp_atan$lsc) refers (Special) to iusefp.o(.text) for __I$use$fp
    atan_x.o(i.____softfp_atan$lsc) refers to atan_x.o(i.____hardfp_atan$lsc) for ____hardfp_atan$lsc
    atan_x.o(i.__atan$lsc) refers (Special) to iusefp.o(.text) for __I$use$fp
    atan_x.o(i.__atan$lsc) refers to atan_x.o(i.____hardfp_atan$lsc) for ____hardfp_atan$lsc
    atan_x.o(.constdata) refers (Special) to iusefp.o(.text) for __I$use$fp
    atan2.o(i.__hardfp_atan2) refers (Special) to iusefp.o(.text) for __I$use$fp
    atan2.o(i.__hardfp_atan2) refers to dadd.o(.text) for __aeabi_dadd
    atan2.o(i.__hardfp_atan2) refers to atan.o(i.atan) for atan
    atan2.o(i.__hardfp_atan2) refers to ddiv.o(.text) for __aeabi_ddiv
    atan2.o(i.__hardfp_atan2) refers to fabs.o(i.fabs) for fabs
    atan2.o(i.__hardfp_atan2) refers to qnan.o(.constdata) for __mathlib_zero
    atan2.o(i.__softfp_atan2) refers (Special) to iusefp.o(.text) for __I$use$fp
    atan2.o(i.__softfp_atan2) refers to atan2.o(i.__hardfp_atan2) for __hardfp_atan2
    atan2.o(i.atan2) refers (Special) to iusefp.o(.text) for __I$use$fp
    atan2.o(i.atan2) refers to atan2.o(i.__hardfp_atan2) for __hardfp_atan2
    atan2_x.o(i.____hardfp_atan2$lsc) refers (Special) to iusefp.o(.text) for __I$use$fp
    atan2_x.o(i.____hardfp_atan2$lsc) refers to dadd.o(.text) for __aeabi_dadd
    atan2_x.o(i.____hardfp_atan2$lsc) refers to atan.o(i.atan) for atan
    atan2_x.o(i.____hardfp_atan2$lsc) refers to errno.o(i.__set_errno) for __set_errno
    atan2_x.o(i.____hardfp_atan2$lsc) refers to ddiv.o(.text) for __aeabi_ddiv
    atan2_x.o(i.____hardfp_atan2$lsc) refers to fabs.o(i.fabs) for fabs
    atan2_x.o(i.____hardfp_atan2$lsc) refers to qnan.o(.constdata) for __mathlib_zero
    atan2_x.o(i.____softfp_atan2$lsc) refers (Special) to iusefp.o(.text) for __I$use$fp
    atan2_x.o(i.____softfp_atan2$lsc) refers to atan2_x.o(i.____hardfp_atan2$lsc) for ____hardfp_atan2$lsc
    atan2_x.o(i.__atan2$lsc) refers (Special) to iusefp.o(.text) for __I$use$fp
    atan2_x.o(i.__atan2$lsc) refers to atan2_x.o(i.____hardfp_atan2$lsc) for ____hardfp_atan2$lsc
    ceil.o(i.__hardfp_ceil) refers (Special) to iusefp.o(.text) for __I$use$fp
    ceil.o(i.__hardfp_ceil) refers to dadd.o(.text) for __aeabi_dadd
    ceil.o(i.__hardfp_ceil) refers to cdrcmple.o(.text) for __aeabi_cdrcmple
    ceil.o(i.__softfp_ceil) refers (Special) to iusefp.o(.text) for __I$use$fp
    ceil.o(i.__softfp_ceil) refers to ceil.o(i.__hardfp_ceil) for __hardfp_ceil
    ceil.o(i.ceil) refers (Special) to iusefp.o(.text) for __I$use$fp
    ceil.o(i.ceil) refers to ceil.o(i.__hardfp_ceil) for __hardfp_ceil
    cos.o(i.__hardfp_cos) refers (Special) to iusefp.o(.text) for __I$use$fp
    cos.o(i.__hardfp_cos) refers to errno.o(i.__set_errno) for __set_errno
    cos.o(i.__hardfp_cos) refers to ddiv.o(.text) for __aeabi_ddiv
    cos.o(i.__hardfp_cos) refers to dadd.o(.text) for __aeabi_dadd
    cos.o(i.__hardfp_cos) refers to rred.o(i.__ieee754_rem_pio2) for __ieee754_rem_pio2
    cos.o(i.__hardfp_cos) refers to sin_i.o(i.__kernel_sin) for __kernel_sin
    cos.o(i.__hardfp_cos) refers to cos_i.o(i.__kernel_cos) for __kernel_cos
    cos.o(i.__softfp_cos) refers (Special) to iusefp.o(.text) for __I$use$fp
    cos.o(i.__softfp_cos) refers to cos.o(i.__hardfp_cos) for __hardfp_cos
    cos.o(i.cos) refers (Special) to iusefp.o(.text) for __I$use$fp
    cos.o(i.cos) refers to cos.o(i.__hardfp_cos) for __hardfp_cos
    cos_x.o(i.____hardfp_cos$lsc) refers (Special) to iusefp.o(.text) for __I$use$fp
    cos_x.o(i.____hardfp_cos$lsc) refers to errno.o(i.__set_errno) for __set_errno
    cos_x.o(i.____hardfp_cos$lsc) refers to dadd.o(.text) for __aeabi_dadd
    cos_x.o(i.____hardfp_cos$lsc) refers to rred.o(i.__ieee754_rem_pio2) for __ieee754_rem_pio2
    cos_x.o(i.____hardfp_cos$lsc) refers to sin_i.o(i.__kernel_sin) for __kernel_sin
    cos_x.o(i.____hardfp_cos$lsc) refers to cos_i.o(i.__kernel_cos) for __kernel_cos
    cos_x.o(i.____softfp_cos$lsc) refers (Special) to iusefp.o(.text) for __I$use$fp
    cos_x.o(i.____softfp_cos$lsc) refers to cos_x.o(i.____hardfp_cos$lsc) for ____hardfp_cos$lsc
    cos_x.o(i.__cos$lsc) refers (Special) to iusefp.o(.text) for __I$use$fp
    cos_x.o(i.__cos$lsc) refers to cos_x.o(i.____hardfp_cos$lsc) for ____hardfp_cos$lsc
    exp.o(i.__hardfp_exp) refers (Special) to iusefp.o(.text) for __I$use$fp
    exp.o(i.__hardfp_exp) refers to dadd.o(.text) for __aeabi_dadd
    exp.o(i.__hardfp_exp) refers to cdrcmple.o(.text) for __aeabi_cdrcmple
    exp.o(i.__hardfp_exp) refers to errno.o(i.__set_errno) for __set_errno
    exp.o(i.__hardfp_exp) refers to dmul.o(.text) for __aeabi_dmul
    exp.o(i.__hardfp_exp) refers to cdcmple.o(.text) for __aeabi_cdcmple
    exp.o(i.__hardfp_exp) refers to dunder.o(i.__mathlib_dbl_underflow) for __mathlib_dbl_underflow
    exp.o(i.__hardfp_exp) refers to dfixi.o(.text) for __aeabi_d2iz
    exp.o(i.__hardfp_exp) refers to dflti.o(.text) for __aeabi_i2d
    exp.o(i.__hardfp_exp) refers to poly.o(i.__kernel_poly) for __kernel_poly
    exp.o(i.__hardfp_exp) refers to ddiv.o(.text) for __aeabi_ddiv
    exp.o(i.__hardfp_exp) refers to fpclassify.o(i.__ARM_fpclassify) for __ARM_fpclassify
    exp.o(i.__hardfp_exp) refers to exp.o(.constdata) for .constdata
    exp.o(i.__softfp_exp) refers (Special) to iusefp.o(.text) for __I$use$fp
    exp.o(i.__softfp_exp) refers to exp.o(i.__hardfp_exp) for __hardfp_exp
    exp.o(i.exp) refers (Special) to iusefp.o(.text) for __I$use$fp
    exp.o(i.exp) refers to exp.o(i.__hardfp_exp) for __hardfp_exp
    exp.o(.constdata) refers (Special) to iusefp.o(.text) for __I$use$fp
    exp_x.o(i.____hardfp_exp$lsc) refers (Special) to iusefp.o(.text) for __I$use$fp
    exp_x.o(i.____hardfp_exp$lsc) refers to dadd.o(.text) for __aeabi_dadd
    exp_x.o(i.____hardfp_exp$lsc) refers to cdrcmple.o(.text) for __aeabi_cdrcmple
    exp_x.o(i.____hardfp_exp$lsc) refers to errno.o(i.__set_errno) for __set_errno
    exp_x.o(i.____hardfp_exp$lsc) refers to cdcmple.o(.text) for __aeabi_cdcmple
    exp_x.o(i.____hardfp_exp$lsc) refers to dmul.o(.text) for __aeabi_dmul
    exp_x.o(i.____hardfp_exp$lsc) refers to dfixi.o(.text) for __aeabi_d2iz
    exp_x.o(i.____hardfp_exp$lsc) refers to dflti.o(.text) for __aeabi_i2d
    exp_x.o(i.____hardfp_exp$lsc) refers to poly.o(i.__kernel_poly) for __kernel_poly
    exp_x.o(i.____hardfp_exp$lsc) refers to ddiv.o(.text) for __aeabi_ddiv
    exp_x.o(i.____hardfp_exp$lsc) refers to qnan.o(.constdata) for __mathlib_zero
    exp_x.o(i.____hardfp_exp$lsc) refers to exp_x.o(.constdata) for .constdata
    exp_x.o(i.____softfp_exp$lsc) refers (Special) to iusefp.o(.text) for __I$use$fp
    exp_x.o(i.____softfp_exp$lsc) refers to exp_x.o(i.____hardfp_exp$lsc) for ____hardfp_exp$lsc
    exp_x.o(i.__exp$lsc) refers (Special) to iusefp.o(.text) for __I$use$fp
    exp_x.o(i.__exp$lsc) refers to exp_x.o(i.____hardfp_exp$lsc) for ____hardfp_exp$lsc
    exp_x.o(.constdata) refers (Special) to iusefp.o(.text) for __I$use$fp
    fabs.o(i.__hardfp_fabs) refers (Special) to iusefp.o(.text) for __I$use$fp
    fabs.o(i.__softfp_fabs) refers (Special) to iusefp.o(.text) for __I$use$fp
    fabs.o(i.fabs) refers (Special) to iusefp.o(.text) for __I$use$fp
    floor.o(i.__hardfp_floor) refers (Special) to iusefp.o(.text) for __I$use$fp
    floor.o(i.__hardfp_floor) refers to dadd.o(.text) for __aeabi_dadd
    floor.o(i.__hardfp_floor) refers to cdrcmple.o(.text) for __aeabi_cdrcmple
    floor.o(i.__softfp_floor) refers (Special) to iusefp.o(.text) for __I$use$fp
    floor.o(i.__softfp_floor) refers to floor.o(i.__hardfp_floor) for __hardfp_floor
    floor.o(i.floor) refers (Special) to iusefp.o(.text) for __I$use$fp
    floor.o(i.floor) refers to floor.o(i.__hardfp_floor) for __hardfp_floor
    log.o(i.__hardfp_log) refers (Special) to iusefp.o(.text) for __I$use$fp
    log.o(i.__hardfp_log) refers to dadd.o(.text) for __aeabi_dadd
    log.o(i.__hardfp_log) refers to errno.o(i.__set_errno) for __set_errno
    log.o(i.__hardfp_log) refers to ddiv.o(.text) for __aeabi_ddiv
    log.o(i.__hardfp_log) refers to dmul.o(.text) for __aeabi_dmul
    log.o(i.__hardfp_log) refers to cdcmple.o(.text) for __aeabi_cdcmpeq
    log.o(i.__hardfp_log) refers to dflti.o(.text) for __aeabi_i2d
    log.o(i.__hardfp_log) refers to poly.o(i.__kernel_poly) for __kernel_poly
    log.o(i.__hardfp_log) refers to qnan.o(.constdata) for __mathlib_zero
    log.o(i.__hardfp_log) refers to log.o(.constdata) for .constdata
    log.o(i.__softfp_log) refers (Special) to iusefp.o(.text) for __I$use$fp
    log.o(i.__softfp_log) refers to log.o(i.__hardfp_log) for __hardfp_log
    log.o(i.log) refers (Special) to iusefp.o(.text) for __I$use$fp
    log.o(i.log) refers to log.o(i.__hardfp_log) for __hardfp_log
    log.o(.constdata) refers (Special) to iusefp.o(.text) for __I$use$fp
    log_x.o(i.____hardfp_log$lsc) refers (Special) to iusefp.o(.text) for __I$use$fp
    log_x.o(i.____hardfp_log$lsc) refers to dadd.o(.text) for __aeabi_dadd
    log_x.o(i.____hardfp_log$lsc) refers to errno.o(i.__set_errno) for __set_errno
    log_x.o(i.____hardfp_log$lsc) refers to dmul.o(.text) for __aeabi_dmul
    log_x.o(i.____hardfp_log$lsc) refers to cdcmple.o(.text) for __aeabi_cdcmpeq
    log_x.o(i.____hardfp_log$lsc) refers to dflti.o(.text) for __aeabi_i2d
    log_x.o(i.____hardfp_log$lsc) refers to ddiv.o(.text) for __aeabi_ddiv
    log_x.o(i.____hardfp_log$lsc) refers to poly.o(i.__kernel_poly) for __kernel_poly
    log_x.o(i.____hardfp_log$lsc) refers to qnan.o(.constdata) for __mathlib_zero
    log_x.o(i.____hardfp_log$lsc) refers to log_x.o(.constdata) for .constdata
    log_x.o(i.____softfp_log$lsc) refers (Special) to iusefp.o(.text) for __I$use$fp
    log_x.o(i.____softfp_log$lsc) refers to log_x.o(i.____hardfp_log$lsc) for ____hardfp_log$lsc
    log_x.o(i.__log$lsc) refers (Special) to iusefp.o(.text) for __I$use$fp
    log_x.o(i.__log$lsc) refers to log_x.o(i.____hardfp_log$lsc) for ____hardfp_log$lsc
    log_x.o(.constdata) refers (Special) to iusefp.o(.text) for __I$use$fp
    pow.o(i.__hardfp_pow) refers (Special) to iusefp.o(.text) for __I$use$fp
    pow.o(i.__hardfp_pow) refers to dadd.o(.text) for __aeabi_dadd
    pow.o(i.__hardfp_pow) refers to errno.o(i.__set_errno) for __set_errno
    pow.o(i.__hardfp_pow) refers to dmul.o(.text) for __aeabi_dmul
    pow.o(i.__hardfp_pow) refers to ddiv.o(.text) for __aeabi_ddiv
    pow.o(i.__hardfp_pow) refers to sqrt.o(i.sqrt) for sqrt
    pow.o(i.__hardfp_pow) refers to fabs.o(i.fabs) for fabs
    pow.o(i.__hardfp_pow) refers to dunder.o(i.__mathlib_dbl_underflow) for __mathlib_dbl_underflow
    pow.o(i.__hardfp_pow) refers to qnan.o(.constdata) for __mathlib_zero
    pow.o(i.__hardfp_pow) refers to poly.o(i.__kernel_poly) for __kernel_poly
    pow.o(i.__hardfp_pow) refers to dflti.o(.text) for __aeabi_i2d
    pow.o(i.__hardfp_pow) refers to pow.o(.constdata) for .constdata
    pow.o(i.__hardfp_pow) refers to cdrcmple.o(.text) for __aeabi_cdrcmple
    pow.o(i.__hardfp_pow) refers to dscalb.o(.text) for __ARM_scalbn
    pow.o(i.__hardfp_pow) refers to fpclassify.o(i.__ARM_fpclassify) for __ARM_fpclassify
    pow.o(i.__softfp_pow) refers (Special) to iusefp.o(.text) for __I$use$fp
    pow.o(i.__softfp_pow) refers to pow.o(i.__hardfp_pow) for __hardfp_pow
    pow.o(i.pow) refers (Special) to iusefp.o(.text) for __I$use$fp
    pow.o(i.pow) refers to pow.o(i.__hardfp_pow) for __hardfp_pow
    pow.o(.constdata) refers (Special) to iusefp.o(.text) for __I$use$fp
    pow_x.o(i.____hardfp_pow$lsc) refers (Special) to iusefp.o(.text) for __I$use$fp
    pow_x.o(i.____hardfp_pow$lsc) refers to dadd.o(.text) for __aeabi_dadd
    pow_x.o(i.____hardfp_pow$lsc) refers to errno.o(i.__set_errno) for __set_errno
    pow_x.o(i.____hardfp_pow$lsc) refers to ddiv.o(.text) for __aeabi_ddiv
    pow_x.o(i.____hardfp_pow$lsc) refers to sqrt.o(i.sqrt) for sqrt
    pow_x.o(i.____hardfp_pow$lsc) refers to fabs.o(i.fabs) for fabs
    pow_x.o(i.____hardfp_pow$lsc) refers to dflti.o(.text) for __aeabi_i2d
    pow_x.o(i.____hardfp_pow$lsc) refers to dmul.o(.text) for __aeabi_dmul
    pow_x.o(i.____hardfp_pow$lsc) refers to qnan.o(.constdata) for __mathlib_zero
    pow_x.o(i.____hardfp_pow$lsc) refers to poly.o(i.__kernel_poly) for __kernel_poly
    pow_x.o(i.____hardfp_pow$lsc) refers to pow_x.o(.constdata) for .constdata
    pow_x.o(i.____hardfp_pow$lsc) refers to cdrcmple.o(.text) for __aeabi_cdrcmple
    pow_x.o(i.____hardfp_pow$lsc) refers to dscalb.o(.text) for __ARM_scalbn
    pow_x.o(i.____softfp_pow$lsc) refers (Special) to iusefp.o(.text) for __I$use$fp
    pow_x.o(i.____softfp_pow$lsc) refers to pow_x.o(i.____hardfp_pow$lsc) for ____hardfp_pow$lsc
    pow_x.o(i.__pow$lsc) refers (Special) to iusefp.o(.text) for __I$use$fp
    pow_x.o(i.__pow$lsc) refers to pow_x.o(i.____hardfp_pow$lsc) for ____hardfp_pow$lsc
    pow_x.o(.constdata) refers (Special) to iusefp.o(.text) for __I$use$fp
    sin.o(i.__hardfp_sin) refers (Special) to iusefp.o(.text) for __I$use$fp
    sin.o(i.__hardfp_sin) refers to errno.o(i.__set_errno) for __set_errno
    sin.o(i.__hardfp_sin) refers to ddiv.o(.text) for __aeabi_ddiv
    sin.o(i.__hardfp_sin) refers to dadd.o(.text) for __aeabi_dadd
    sin.o(i.__hardfp_sin) refers to rred.o(i.__ieee754_rem_pio2) for __ieee754_rem_pio2
    sin.o(i.__hardfp_sin) refers to cos_i.o(i.__kernel_cos) for __kernel_cos
    sin.o(i.__hardfp_sin) refers to sin_i.o(i.__kernel_sin) for __kernel_sin
    sin.o(i.__softfp_sin) refers (Special) to iusefp.o(.text) for __I$use$fp
    sin.o(i.__softfp_sin) refers to sin.o(i.__hardfp_sin) for __hardfp_sin
    sin.o(i.sin) refers (Special) to iusefp.o(.text) for __I$use$fp
    sin.o(i.sin) refers to sin.o(i.__hardfp_sin) for __hardfp_sin
    sin_x.o(i.____hardfp_sin$lsc) refers (Special) to iusefp.o(.text) for __I$use$fp
    sin_x.o(i.____hardfp_sin$lsc) refers to errno.o(i.__set_errno) for __set_errno
    sin_x.o(i.____hardfp_sin$lsc) refers to dadd.o(.text) for __aeabi_dadd
    sin_x.o(i.____hardfp_sin$lsc) refers to rred.o(i.__ieee754_rem_pio2) for __ieee754_rem_pio2
    sin_x.o(i.____hardfp_sin$lsc) refers to cos_i.o(i.__kernel_cos) for __kernel_cos
    sin_x.o(i.____hardfp_sin$lsc) refers to sin_i.o(i.__kernel_sin) for __kernel_sin
    sin_x.o(i.____softfp_sin$lsc) refers (Special) to iusefp.o(.text) for __I$use$fp
    sin_x.o(i.____softfp_sin$lsc) refers to sin_x.o(i.____hardfp_sin$lsc) for ____hardfp_sin$lsc
    sin_x.o(i.__sin$lsc) refers (Special) to iusefp.o(.text) for __I$use$fp
    sin_x.o(i.__sin$lsc) refers to sin_x.o(i.____hardfp_sin$lsc) for ____hardfp_sin$lsc
    sqrt.o(i.__hardfp_sqrt) refers (Special) to iusefp.o(.text) for __I$use$fp
    sqrt.o(i.__hardfp_sqrt) refers to dsqrt.o(.text) for _dsqrt
    sqrt.o(i.__hardfp_sqrt) refers to errno.o(i.__set_errno) for __set_errno
    sqrt.o(i.__softfp_sqrt) refers (Special) to iusefp.o(.text) for __I$use$fp
    sqrt.o(i.__softfp_sqrt) refers to dsqrt.o(.text) for _dsqrt
    sqrt.o(i.__softfp_sqrt) refers to errno.o(i.__set_errno) for __set_errno
    sqrt.o(i.sqrt) refers (Special) to iusefp.o(.text) for __I$use$fp
    sqrt.o(i.sqrt) refers to dsqrt.o(.text) for _dsqrt
    sqrt.o(i.sqrt) refers to errno.o(i.__set_errno) for __set_errno
    sqrt_x.o(i.____hardfp_sqrt$lsc) refers (Special) to iusefp.o(.text) for __I$use$fp
    sqrt_x.o(i.____hardfp_sqrt$lsc) refers to cdcmple.o(.text) for __aeabi_cdcmple
    sqrt_x.o(i.____hardfp_sqrt$lsc) refers to errno.o(i.__set_errno) for __set_errno
    sqrt_x.o(i.____hardfp_sqrt$lsc) refers to dsqrt.o(.text) for _dsqrt
    sqrt_x.o(i.____softfp_sqrt$lsc) refers (Special) to iusefp.o(.text) for __I$use$fp
    sqrt_x.o(i.____softfp_sqrt$lsc) refers to cdcmple.o(.text) for __aeabi_cdcmple
    sqrt_x.o(i.____softfp_sqrt$lsc) refers to errno.o(i.__set_errno) for __set_errno
    sqrt_x.o(i.____softfp_sqrt$lsc) refers to dsqrt.o(.text) for _dsqrt
    sqrt_x.o(i.__sqrt$lsc) refers (Special) to iusefp.o(.text) for __I$use$fp
    sqrt_x.o(i.__sqrt$lsc) refers to cdcmple.o(.text) for __aeabi_cdcmple
    sqrt_x.o(i.__sqrt$lsc) refers to errno.o(i.__set_errno) for __set_errno
    sqrt_x.o(i.__sqrt$lsc) refers to dsqrt.o(.text) for _dsqrt
    tan.o(i.__hardfp_tan) refers (Special) to iusefp.o(.text) for __I$use$fp
    tan.o(i.__hardfp_tan) refers to errno.o(i.__set_errno) for __set_errno
    tan.o(i.__hardfp_tan) refers to ddiv.o(.text) for __aeabi_ddiv
    tan.o(i.__hardfp_tan) refers to dadd.o(.text) for __aeabi_dadd
    tan.o(i.__hardfp_tan) refers to rred.o(i.__ieee754_rem_pio2) for __ieee754_rem_pio2
    tan.o(i.__hardfp_tan) refers to tan_i.o(i.__kernel_tan) for __kernel_tan
    tan.o(i.__softfp_tan) refers (Special) to iusefp.o(.text) for __I$use$fp
    tan.o(i.__softfp_tan) refers to tan.o(i.__hardfp_tan) for __hardfp_tan
    tan.o(i.tan) refers (Special) to iusefp.o(.text) for __I$use$fp
    tan.o(i.tan) refers to tan.o(i.__hardfp_tan) for __hardfp_tan
    tan_x.o(i.____hardfp_tan$lsc) refers (Special) to iusefp.o(.text) for __I$use$fp
    tan_x.o(i.____hardfp_tan$lsc) refers to errno.o(i.__set_errno) for __set_errno
    tan_x.o(i.____hardfp_tan$lsc) refers to dadd.o(.text) for __aeabi_dadd
    tan_x.o(i.____hardfp_tan$lsc) refers to rred.o(i.__ieee754_rem_pio2) for __ieee754_rem_pio2
    tan_x.o(i.____hardfp_tan$lsc) refers to tan_i.o(i.__kernel_tan) for __kernel_tan
    tan_x.o(i.____softfp_tan$lsc) refers (Special) to iusefp.o(.text) for __I$use$fp
    tan_x.o(i.____softfp_tan$lsc) refers to errno.o(i.__set_errno) for __set_errno
    tan_x.o(i.____softfp_tan$lsc) refers to dadd.o(.text) for __aeabi_dadd
    tan_x.o(i.____softfp_tan$lsc) refers to rred.o(i.__ieee754_rem_pio2) for __ieee754_rem_pio2
    tan_x.o(i.____softfp_tan$lsc) refers to tan_i.o(i.__kernel_tan) for __kernel_tan
    tan_x.o(i.__tan$lsc) refers (Special) to iusefp.o(.text) for __I$use$fp
    tan_x.o(i.__tan$lsc) refers to errno.o(i.__set_errno) for __set_errno
    tan_x.o(i.__tan$lsc) refers to dadd.o(.text) for __aeabi_dadd
    tan_x.o(i.__tan$lsc) refers to rred.o(i.__ieee754_rem_pio2) for __ieee754_rem_pio2
    tan_x.o(i.__tan$lsc) refers to tan_i.o(i.__kernel_tan) for __kernel_tan
    entry.o(.ARM.Collect$$$$00000000) refers (Special) to entry7b.o(.ARM.Collect$$$$00000008) for _main_clock
    entry.o(.ARM.Collect$$$$00000000) refers (Special) to entry8.o(.ARM.Collect$$$$00000009) for _main_init
    entry.o(.ARM.Collect$$$$00000000) refers (Special) to entry5.o(.ARM.Collect$$$$00000004) for _main_scatterload
    entry.o(.ARM.Collect$$$$00000000) refers (Special) to entry2.o(.ARM.Collect$$$$00000001) for _main_stk
    uldiv.o(.text) refers to llushr.o(.text) for __aeabi_llsr
    uldiv.o(.text) refers to llshl.o(.text) for __aeabi_llsl
    ldiv.o(.text) refers to uldiv.o(.text) for __aeabi_uldivmod
    rand.o(.text) refers to rand.o(.data) for .data
    dadd.o(.text) refers (Special) to iusefp.o(.text) for __I$use$fp
    dadd.o(.text) refers to llshl.o(.text) for __aeabi_llsl
    dadd.o(.text) refers to llsshr.o(.text) for __aeabi_lasr
    dadd.o(.text) refers to depilogue.o(.text) for _double_epilogue
    dmul.o(.text) refers (Special) to iusefp.o(.text) for __I$use$fp
    dmul.o(.text) refers to depilogue.o(.text) for _double_epilogue
    dflti.o(.text) refers (Special) to iusefp.o(.text) for __I$use$fp
    dflti.o(.text) refers to depilogue.o(.text) for _double_epilogue
    dfixi.o(.text) refers (Special) to iusefp.o(.text) for __I$use$fp
    dfixi.o(.text) refers to llushr.o(.text) for __aeabi_llsr
    f2d.o(.text) refers (Special) to iusefp.o(.text) for __I$use$fp
    d2f.o(.text) refers (Special) to iusefp.o(.text) for __I$use$fp
    d2f.o(.text) refers to fepilogue.o(.text) for _float_round
    cos_i.o(i.__kernel_cos) refers (Special) to iusefp.o(.text) for __I$use$fp
    cos_i.o(i.__kernel_cos) refers to dfixi.o(.text) for __aeabi_d2iz
    cos_i.o(i.__kernel_cos) refers to dmul.o(.text) for __aeabi_dmul
    cos_i.o(i.__kernel_cos) refers to poly.o(i.__kernel_poly) for __kernel_poly
    cos_i.o(i.__kernel_cos) refers to dadd.o(.text) for __aeabi_dsub
    cos_i.o(i.__kernel_cos) refers to cos_i.o(.constdata) for .constdata
    cos_i.o(.constdata) refers (Special) to iusefp.o(.text) for __I$use$fp
    dunder.o(i.__mathlib_dbl_underflow) refers to dmul.o(.text) for __aeabi_dmul
    fpclassify.o(i.__ARM_fpclassify) refers (Special) to iusefp.o(.text) for __I$use$fp
    poly.o(i.__kernel_poly) refers (Special) to iusefp.o(.text) for __I$use$fp
    poly.o(i.__kernel_poly) refers to dmul.o(.text) for __aeabi_dmul
    poly.o(i.__kernel_poly) refers to dadd.o(.text) for __aeabi_dadd
    qnan.o(.constdata) refers (Special) to iusefp.o(.text) for __I$use$fp
    rred.o(i.__ieee754_rem_pio2) refers (Special) to iusefp.o(.text) for __I$use$fp
    rred.o(i.__ieee754_rem_pio2) refers to dadd.o(.text) for __aeabi_dsub
    rred.o(i.__ieee754_rem_pio2) refers to fabs.o(i.fabs) for fabs
    rred.o(i.__ieee754_rem_pio2) refers to dmul.o(.text) for __aeabi_dmul
    rred.o(i.__ieee754_rem_pio2) refers to dfixi.o(.text) for __aeabi_d2iz
    rred.o(i.__ieee754_rem_pio2) refers to dflti.o(.text) for __aeabi_i2d
    rred.o(i.__ieee754_rem_pio2) refers to dfltui.o(.text) for __aeabi_ui2d
    rred.o(i.__ieee754_rem_pio2) refers to rred.o(.constdata) for .constdata
    rred.o(i.__use_accurate_range_reduction) refers (Special) to iusefp.o(.text) for __I$use$fp
    rred.o(.constdata) refers (Special) to iusefp.o(.text) for __I$use$fp
    sin_i.o(i.__kernel_sin) refers (Special) to iusefp.o(.text) for __I$use$fp
    sin_i.o(i.__kernel_sin) refers to fpclassify.o(i.__ARM_fpclassify) for __ARM_fpclassify
    sin_i.o(i.__kernel_sin) refers to dunder.o(i.__mathlib_dbl_underflow) for __mathlib_dbl_underflow
    sin_i.o(i.__kernel_sin) refers to dmul.o(.text) for __aeabi_dmul
    sin_i.o(i.__kernel_sin) refers to poly.o(i.__kernel_poly) for __kernel_poly
    sin_i.o(i.__kernel_sin) refers to dadd.o(.text) for __aeabi_dsub
    sin_i.o(i.__kernel_sin) refers to sin_i.o(.constdata) for .constdata
    sin_i.o(.constdata) refers (Special) to iusefp.o(.text) for __I$use$fp
    sin_i_x.o(i.____kernel_sin$lsc) refers (Special) to iusefp.o(.text) for __I$use$fp
    sin_i_x.o(i.____kernel_sin$lsc) refers to dmul.o(.text) for __aeabi_dmul
    sin_i_x.o(i.____kernel_sin$lsc) refers to poly.o(i.__kernel_poly) for __kernel_poly
    sin_i_x.o(i.____kernel_sin$lsc) refers to dadd.o(.text) for __aeabi_dsub
    sin_i_x.o(i.____kernel_sin$lsc) refers to sin_i_x.o(.constdata) for .constdata
    sin_i_x.o(.constdata) refers (Special) to iusefp.o(.text) for __I$use$fp
    tan_i.o(i.__kernel_tan) refers (Special) to iusefp.o(.text) for __I$use$fp
    tan_i.o(i.__kernel_tan) refers to dfixi.o(.text) for __aeabi_d2iz
    tan_i.o(i.__kernel_tan) refers to dadd.o(.text) for __aeabi_drsub
    tan_i.o(i.__kernel_tan) refers to dmul.o(.text) for __aeabi_dmul
    tan_i.o(i.__kernel_tan) refers to poly.o(i.__kernel_poly) for __kernel_poly
    tan_i.o(i.__kernel_tan) refers to dflti.o(.text) for __aeabi_i2d
    tan_i.o(i.__kernel_tan) refers to ddiv.o(.text) for __aeabi_ddiv
    tan_i.o(i.__kernel_tan) refers to fabs.o(i.fabs) for fabs
    tan_i.o(i.__kernel_tan) refers to fpclassify.o(i.__ARM_fpclassify) for __ARM_fpclassify
    tan_i.o(i.__kernel_tan) refers to dunder.o(i.__mathlib_dbl_underflow) for __mathlib_dbl_underflow
    tan_i.o(i.__kernel_tan) refers to tan_i.o(.constdata) for .constdata
    tan_i.o(.constdata) refers (Special) to iusefp.o(.text) for __I$use$fp
    tan_i_x.o(i.____kernel_tan$lsc) refers (Special) to iusefp.o(.text) for __I$use$fp
    tan_i_x.o(i.____kernel_tan$lsc) refers to dfixi.o(.text) for __aeabi_d2iz
    tan_i_x.o(i.____kernel_tan$lsc) refers to dadd.o(.text) for __aeabi_drsub
    tan_i_x.o(i.____kernel_tan$lsc) refers to dmul.o(.text) for __aeabi_dmul
    tan_i_x.o(i.____kernel_tan$lsc) refers to poly.o(i.__kernel_poly) for __kernel_poly
    tan_i_x.o(i.____kernel_tan$lsc) refers to dflti.o(.text) for __aeabi_i2d
    tan_i_x.o(i.____kernel_tan$lsc) refers to ddiv.o(.text) for __aeabi_ddiv
    tan_i_x.o(i.____kernel_tan$lsc) refers to fabs.o(i.fabs) for fabs
    tan_i_x.o(i.____kernel_tan$lsc) refers to tan_i_x.o(.constdata) for .constdata
    tan_i_x.o(.constdata) refers (Special) to iusefp.o(.text) for __I$use$fp
    entry2.o(.ARM.Collect$$$$00000001) refers to entry2.o(.ARM.Collect$$$$00002712) for __lit__00000000
    entry2.o(.ARM.Collect$$$$00002712) refers to startup_stm32f4xx.o(STACK) for __initial_sp
    entry2.o(__vectab_stack_and_reset_area) refers to startup_stm32f4xx.o(STACK) for __initial_sp
    entry2.o(__vectab_stack_and_reset_area) refers to entry.o(.ARM.Collect$$$$00000000) for __main
    entry5.o(.ARM.Collect$$$$00000004) refers to init.o(.text) for __scatterload
    entry8.o(.ARM.Collect$$$$00000009) refers to nanovm.o(i.main) for main
    errno.o(i.__aeabi_errno_addr) refers to errno.o(.data) for .data
    errno.o(i.__read_errno) refers to errno.o(.data) for .data
    errno.o(i.__set_errno) refers to errno.o(.data) for .data
    depilogue.o(.text) refers to llshl.o(.text) for __aeabi_llsl
    depilogue.o(.text) refers to llushr.o(.text) for __aeabi_llsr
    ddiv.o(.text) refers to depilogue.o(.text) for _double_round
    dsqrt.o(.text) refers to llushr.o(.text) for __aeabi_llsr
    dsqrt.o(.text) refers to depilogue.o(.text) for _double_round
    init.o(.text) refers to entry5.o(.ARM.Collect$$$$00000004) for __main_after_scatterload
    dfltui.o(.text) refers to depilogue.o(.text) for _double_epilogue


==============================================================================

Removing Unused input sections from the image.

    Removing startup_stm32f4xx.o(HEAP), (512 bytes).
    Removing system_stm32f4xx.o(.emb_text), (8 bytes).
    Removing system_stm32f4xx.o(i.SystemCoreClockUpdate), (196 bytes).
    Removing nanovm.o(.emb_text), (8 bytes).
    Removing nanovm.o(i.Delay), (12 bytes).
    Removing stm32f4xx_it.o(.emb_text), (8 bytes).
    Removing stm32f4xx_it.o(.data), (8 bytes).
    Removing heap.o(i.heap_show), (88 bytes).
    Removing loader.o(i.loader_receive), (236 bytes).
    Removing native_formatter.o(i.native_formatter_init), (2 bytes).
    Removing native_math.o(i.native_math_init), (2 bytes).
    Removing nvmcomm1.o(i.uart_get_block), (70 bytes).
    Removing nvmfile.o(i.nvmfile_get_base), (8 bytes).
    Removing nvmfile.o(i.nvmfile_store), (28 bytes).
    Removing nvmfile.o(i.nvmfile_write08), (2 bytes).
    Removing nvmfile.o(i.nvmfile_write_finalize), (2 bytes).
    Removing nvmfile.o(i.nvmfile_write_initialize), (2 bytes).
    Removing nvmstring.o(i.native_strncat), (38 bytes).
    Removing stack.o(i.stack_pop_double), (48 bytes).
    Removing uart.o(.emb_text), (8 bytes).
    Removing uart.o(i.PrintString), (24 bytes).
    Removing uart.o(i.uart_write_byte), (2 bytes).
    Removing delay.o(.emb_text), (8 bytes).
    Removing stm32f4_discovery.o(.emb_text), (8 bytes).
    Removing stm32f4_discovery.o(i.STM_EVAL_LEDInit), (76 bytes).
    Removing stm32f4_discovery.o(i.STM_EVAL_LEDOff), (24 bytes).
    Removing stm32f4_discovery.o(i.STM_EVAL_LEDToggle), (36 bytes).
    Removing stm32f4_discovery.o(i.STM_EVAL_PBGetState), (32 bytes).
    Removing stm32f4_discovery.o(i.STM_EVAL_PBInit), (168 bytes).
    Removing stm32f4xx_rcc.o(.emb_text), (8 bytes).
    Removing stm32f4xx_rcc.o(i.RCC_AHB1PeriphClockLPModeCmd), (32 bytes).
    Removing stm32f4xx_rcc.o(i.RCC_AHB1PeriphResetCmd), (32 bytes).
    Removing stm32f4xx_rcc.o(i.RCC_AHB2PeriphClockCmd), (32 bytes).
    Removing stm32f4xx_rcc.o(i.RCC_AHB2PeriphClockLPModeCmd), (32 bytes).
    Removing stm32f4xx_rcc.o(i.RCC_AHB2PeriphResetCmd), (32 bytes).
    Removing stm32f4xx_rcc.o(i.RCC_AHB3PeriphClockCmd), (32 bytes).
    Removing stm32f4xx_rcc.o(i.RCC_AHB3PeriphClockLPModeCmd), (32 bytes).
    Removing stm32f4xx_rcc.o(i.RCC_AHB3PeriphResetCmd), (32 bytes).
    Removing stm32f4xx_rcc.o(i.RCC_APB1PeriphClockLPModeCmd), (32 bytes).
    Removing stm32f4xx_rcc.o(i.RCC_APB1PeriphResetCmd), (32 bytes).
    Removing stm32f4xx_rcc.o(i.RCC_APB2PeriphClockLPModeCmd), (32 bytes).
    Removing stm32f4xx_rcc.o(i.RCC_APB2PeriphResetCmd), (32 bytes).
    Removing stm32f4xx_rcc.o(i.RCC_AdjustHSICalibrationValue), (24 bytes).
    Removing stm32f4xx_rcc.o(i.RCC_BackupResetCmd), (12 bytes).
    Removing stm32f4xx_rcc.o(i.RCC_ClearFlag), (20 bytes).
    Removing stm32f4xx_rcc.o(i.RCC_ClearITPendingBit), (12 bytes).
    Removing stm32f4xx_rcc.o(i.RCC_ClockSecuritySystemCmd), (12 bytes).
    Removing stm32f4xx_rcc.o(i.RCC_DeInit), (72 bytes).
    Removing stm32f4xx_rcc.o(i.RCC_GetFlagStatus), (64 bytes).
    Removing stm32f4xx_rcc.o(i.RCC_GetITStatus), (24 bytes).
    Removing stm32f4xx_rcc.o(i.RCC_GetSYSCLKSource), (16 bytes).
    Removing stm32f4xx_rcc.o(i.RCC_HCLKConfig), (24 bytes).
    Removing stm32f4xx_rcc.o(i.RCC_HSEConfig), (16 bytes).
    Removing stm32f4xx_rcc.o(i.RCC_HSICmd), (12 bytes).
    Removing stm32f4xx_rcc.o(i.RCC_I2SCLKConfig), (12 bytes).
    Removing stm32f4xx_rcc.o(i.RCC_ITConfig), (36 bytes).
    Removing stm32f4xx_rcc.o(i.RCC_LSEConfig), (44 bytes).
    Removing stm32f4xx_rcc.o(i.RCC_LSICmd), (12 bytes).
    Removing stm32f4xx_rcc.o(i.RCC_MCO1Config), (28 bytes).
    Removing stm32f4xx_rcc.o(i.RCC_MCO2Config), (28 bytes).
    Removing stm32f4xx_rcc.o(i.RCC_PCLK1Config), (24 bytes).
    Removing stm32f4xx_rcc.o(i.RCC_PCLK2Config), (24 bytes).
    Removing stm32f4xx_rcc.o(i.RCC_PLLCmd), (12 bytes).
    Removing stm32f4xx_rcc.o(i.RCC_PLLConfig), (36 bytes).
    Removing stm32f4xx_rcc.o(i.RCC_PLLI2SCmd), (12 bytes).
    Removing stm32f4xx_rcc.o(i.RCC_PLLI2SConfig), (16 bytes).
    Removing stm32f4xx_rcc.o(i.RCC_RTCCLKCmd), (12 bytes).
    Removing stm32f4xx_rcc.o(i.RCC_RTCCLKConfig), (60 bytes).
    Removing stm32f4xx_rcc.o(i.RCC_SYSCLKConfig), (24 bytes).
    Removing stm32f4xx_rcc.o(i.RCC_WaitForHSEStartUp), (48 bytes).
    Removing misc.o(.emb_text), (8 bytes).
    Removing misc.o(i.NVIC_Init), (120 bytes).
    Removing misc.o(i.NVIC_PriorityGroupConfig), (20 bytes).
    Removing misc.o(i.NVIC_SetVectorTable), (20 bytes).
    Removing misc.o(i.NVIC_SystemLPConfig), (32 bytes).
    Removing misc.o(i.SysTick_CLKSourceConfig), (40 bytes).
    Removing stm32f4xx_gpio.o(.emb_text), (8 bytes).
    Removing stm32f4xx_gpio.o(i.GPIO_DeInit), (256 bytes).
    Removing stm32f4xx_gpio.o(i.GPIO_PinLockConfig), (18 bytes).
    Removing stm32f4xx_gpio.o(i.GPIO_ReadInputData), (8 bytes).
    Removing stm32f4xx_gpio.o(i.GPIO_ReadInputDataBit), (18 bytes).
    Removing stm32f4xx_gpio.o(i.GPIO_ReadOutputData), (8 bytes).
    Removing stm32f4xx_gpio.o(i.GPIO_ReadOutputDataBit), (18 bytes).
    Removing stm32f4xx_gpio.o(i.GPIO_StructInit), (18 bytes).
    Removing stm32f4xx_gpio.o(i.GPIO_ToggleBits), (8 bytes).
    Removing stm32f4xx_gpio.o(i.GPIO_Write), (4 bytes).
    Removing stm32f4xx_exti.o(.emb_text), (8 bytes).
    Removing stm32f4xx_exti.o(i.EXTI_ClearFlag), (12 bytes).
    Removing stm32f4xx_exti.o(i.EXTI_ClearITPendingBit), (12 bytes).
    Removing stm32f4xx_exti.o(i.EXTI_DeInit), (36 bytes).
    Removing stm32f4xx_exti.o(i.EXTI_GenerateSWInterrupt), (16 bytes).
    Removing stm32f4xx_exti.o(i.EXTI_GetFlagStatus), (24 bytes).
    Removing stm32f4xx_exti.o(i.EXTI_GetITStatus), (40 bytes).
    Removing stm32f4xx_exti.o(i.EXTI_Init), (148 bytes).
    Removing stm32f4xx_exti.o(i.EXTI_StructInit), (16 bytes).
    Removing stm32f4xx_syscfg.o(.emb_text), (8 bytes).
    Removing stm32f4xx_syscfg.o(i.SYSCFG_CompensationCellCmd), (12 bytes).
    Removing stm32f4xx_syscfg.o(i.SYSCFG_DeInit), (22 bytes).
    Removing stm32f4xx_syscfg.o(i.SYSCFG_ETH_MediaInterfaceConfig), (12 bytes).
    Removing stm32f4xx_syscfg.o(i.SYSCFG_EXTILineConfig), (64 bytes).
    Removing stm32f4xx_syscfg.o(i.SYSCFG_GetCompensationCellStatus), (24 bytes).
    Removing stm32f4xx_syscfg.o(i.SYSCFG_MemoryRemapConfig), (12 bytes).
    Removing stm32f4xx_usart.o(.emb_text), (8 bytes).
    Removing stm32f4xx_usart.o(i.USART_ClearFlag), (18 bytes).
    Removing stm32f4xx_usart.o(i.USART_ClearITPendingBit), (30 bytes).
    Removing stm32f4xx_usart.o(i.USART_ClockInit), (32 bytes).
    Removing stm32f4xx_usart.o(i.USART_ClockStructInit), (12 bytes).
    Removing stm32f4xx_usart.o(i.USART_DMACmd), (24 bytes).
    Removing stm32f4xx_usart.o(i.USART_DeInit), (180 bytes).
    Removing stm32f4xx_usart.o(i.USART_GetITStatus), (88 bytes).
    Removing stm32f4xx_usart.o(i.USART_HalfDuplexCmd), (24 bytes).
    Removing stm32f4xx_usart.o(i.USART_ITConfig), (74 bytes).
    Removing stm32f4xx_usart.o(i.USART_IrDACmd), (24 bytes).
    Removing stm32f4xx_usart.o(i.USART_IrDAConfig), (18 bytes).
    Removing stm32f4xx_usart.o(i.USART_LINBreakDetectLengthConfig), (18 bytes).
    Removing stm32f4xx_usart.o(i.USART_LINCmd), (24 bytes).
    Removing stm32f4xx_usart.o(i.USART_OneBitMethodCmd), (24 bytes).
    Removing stm32f4xx_usart.o(i.USART_OverSampling8Cmd), (22 bytes).
    Removing stm32f4xx_usart.o(i.USART_ReceiveData), (10 bytes).
    Removing stm32f4xx_usart.o(i.USART_ReceiverWakeUpCmd), (24 bytes).
    Removing stm32f4xx_usart.o(i.USART_SendBreak), (10 bytes).
    Removing stm32f4xx_usart.o(i.USART_SetAddress), (18 bytes).
    Removing stm32f4xx_usart.o(i.USART_SetGuardTime), (16 bytes).
    Removing stm32f4xx_usart.o(i.USART_SetPrescaler), (16 bytes).
    Removing stm32f4xx_usart.o(i.USART_SmartCardCmd), (24 bytes).
    Removing stm32f4xx_usart.o(i.USART_SmartCardNACKCmd), (24 bytes).
    Removing stm32f4xx_usart.o(i.USART_StructInit), (24 bytes).
    Removing stm32f4xx_usart.o(i.USART_WakeUpConfig), (18 bytes).
    Removing adc.o(.emb_text), (8 bytes).
    Removing adc.o(i.ADC_ClearFlag), (6 bytes).
    Removing adc.o(i.ADC_DMACmd), (22 bytes).
    Removing adc.o(i.ADC_MultiModeDMARequestAfterLastTransferCmd), (44 bytes).
    Removing adc.o(i.DMA_Cmd), (22 bytes).
    Removing adc.o(i.DMA_Init), (88 bytes).
    Removing adc.o(i.stm_adc_init), (20 bytes).
    Removing adc.o(i.stm_adc_status), (16 bytes).
    Removing adc.o(.bss), (172 bytes).
    Removing display.o(i.display_init), (2 bytes).
    Removing display.o(i.display_out), (26 bytes).
    Removing display.o(i.display_print), (22 bytes).
    Removing ir_rc5.o(i.sensor_isr), (2 bytes).
    Removing native_clock.o(.emb_text), (8 bytes).
    Removing native_display.o(i.native_ctbot_display_init), (116 bytes).
    Removing native_impl.o(.emb_text), (8 bytes).
    Removing native_impl.o(i.TIM_Init), (152 bytes).
    Removing native_leds.o(.emb_text), (8 bytes).
    Removing native_leds.o(i.native_ctbot_leds_init), (28 bytes).
    Removing native_motor.o(.emb_text), (8 bytes).
    Removing native_motor.o(.data), (16 bytes).
    Removing pid.o(i.pid_left_timer_int), (464 bytes).
    Removing pid.o(i.pid_right_timer_int), (464 bytes).
    Removing pid.o(.bss), (20 bytes).
    Removing pwm.o(.emb_text), (8 bytes).
    Removing pwm.o(i.Motor_isr), (2 bytes).
    Removing pwm.o(i.TIM_ITConfig), (24 bytes).
    Removing pwm.o(i.TIM_OC1Init), (136 bytes).
    Removing pwm.o(i.TIM_OC1PreloadConfig), (18 bytes).
    Removing pwm.o(i.TIM_OC2Init), (164 bytes).
    Removing pwm.o(i.TIM_OC2PreloadConfig), (22 bytes).
    Removing pwm.o(i.TIM_OC3Init), (164 bytes).
    Removing pwm.o(i.TIM_OC3PreloadConfig), (18 bytes).
    Removing pwm.o(i.TIM_OC4Init), (120 bytes).
    Removing pwm.o(i.TIM_OC4PreloadConfig), (22 bytes).
    Removing pwm.o(i.TIM_PrescalerConfig), (6 bytes).
    Removing shift.o(i.shift_init), (2 bytes).
    Removing wheelencoder.o(i.wheelencoder_isr), (2 bytes).
    Removing scheduler.o(.emb_text), (8 bytes).
    Removing scheduler.o(i.Task_wakeup), (40 bytes).
    Removing task.o(i.Task_getID), (12 bytes).
    Removing task.o(i.Task_get_priority), (6 bytes).
    Removing task.o(i.Task_set_priority), (38 bytes).
    Removing task.o(i.Task_setjsp), (4 bytes).
    Removing task.o(i.Task_yield), (32 bytes).
    Removing dneg.o(.text), (6 bytes).

174 unused section(s) (total 7262 bytes) removed from the image.

==============================================================================

Image Symbol Table

    Local Symbols

    Symbol Name                              Value     Ov Type        Size  Object(Section)

    ../../../cmprslib/zerorunl2.c            0x00000000   Number         0  __dczerorl2.o ABSOLUTE
    ../../acos.c                             0x00000000   Number         0  acos_x.o ABSOLUTE
    ../../acos.c                             0x00000000   Number         0  acos.o ABSOLUTE
    ../../asin.c                             0x00000000   Number         0  asin_x.o ABSOLUTE
    ../../asin.c                             0x00000000   Number         0  asin.o ABSOLUTE
    ../../atan.c                             0x00000000   Number         0  atan.o ABSOLUTE
    ../../atan.c                             0x00000000   Number         0  atan_x.o ABSOLUTE
    ../../atan2.c                            0x00000000   Number         0  atan2_x.o ABSOLUTE
    ../../atan2.c                            0x00000000   Number         0  atan2.o ABSOLUTE
    ../../ceil.c                             0x00000000   Number         0  ceil.o ABSOLUTE
    ../../cos.c                              0x00000000   Number         0  cos_x.o ABSOLUTE
    ../../cos.c                              0x00000000   Number         0  cos.o ABSOLUTE
    ../../cos_i.c                            0x00000000   Number         0  cos_i.o ABSOLUTE
    ../../dunder.c                           0x00000000   Number         0  dunder.o ABSOLUTE
    ../../exp.c                              0x00000000   Number         0  exp.o ABSOLUTE
    ../../exp.c                              0x00000000   Number         0  exp_x.o ABSOLUTE
    ../../fabs.c                             0x00000000   Number         0  fabs.o ABSOLUTE
    ../../floor.c                            0x00000000   Number         0  floor.o ABSOLUTE
    ../../fpclassify.c                       0x00000000   Number         0  fpclassify.o ABSOLUTE
    ../../log.c                              0x00000000   Number         0  log_x.o ABSOLUTE
    ../../log.c                              0x00000000   Number         0  log.o ABSOLUTE
    ../../microlib/d2f.c                     0x00000000   Number         0  d2f.o ABSOLUTE
    ../../microlib/division.c                0x00000000   Number         0  uldiv.o ABSOLUTE
    ../../microlib/division.c                0x00000000   Number         0  ldiv.o ABSOLUTE
    ../../microlib/errno.c                   0x00000000   Number         0  errno.o ABSOLUTE
    ../../microlib/f2d.c                     0x00000000   Number         0  f2d.o ABSOLUTE
    ../../microlib/fpadd.c                   0x00000000   Number         0  dadd.o ABSOLUTE
    ../../microlib/fpdiv.c                   0x00000000   Number         0  ddiv.o ABSOLUTE
    ../../microlib/fpepilogue.c              0x00000000   Number         0  fepilogue.o ABSOLUTE
    ../../microlib/fpepilogue.c              0x00000000   Number         0  depilogue.o ABSOLUTE
    ../../microlib/fpfix.c                   0x00000000   Number         0  dfixi.o ABSOLUTE
    ../../microlib/fpflt.c                   0x00000000   Number         0  dfltui.o ABSOLUTE
    ../../microlib/fpflt.c                   0x00000000   Number         0  dflti.o ABSOLUTE
    ../../microlib/fpmul.c                   0x00000000   Number         0  dmul.o ABSOLUTE
    ../../microlib/fpneg.c                   0x00000000   Number         0  dneg.o ABSOLUTE
    ../../microlib/fpscalb.c                 0x00000000   Number         0  dscalb.o ABSOLUTE
    ../../microlib/fpsqrt.c                  0x00000000   Number         0  dsqrt.o ABSOLUTE
    ../../microlib/init/entry.s              0x00000000   Number         0  entry5.o ABSOLUTE
    ../../microlib/init/entry.s              0x00000000   Number         0  entry.o ABSOLUTE
    ../../microlib/init/entry.s              0x00000000   Number         0  entry2.o ABSOLUTE
    ../../microlib/init/entry.s              0x00000000   Number         0  entry8.o ABSOLUTE
    ../../microlib/init/entry.s              0x00000000   Number         0  entry7b.o ABSOLUTE
    ../../microlib/init/entry.s              0x00000000   Number         0  entry7a.o ABSOLUTE
    ../../microlib/longlong.c                0x00000000   Number         0  llshl.o ABSOLUTE
    ../../microlib/longlong.c                0x00000000   Number         0  llushr.o ABSOLUTE
    ../../microlib/longlong.c                0x00000000   Number         0  llsshr.o ABSOLUTE
    ../../microlib/stdlib/rand.c             0x00000000   Number         0  rand.o ABSOLUTE
    ../../microlib/string/memcpy.c           0x00000000   Number         0  memcpyb.o ABSOLUTE
    ../../microlib/string/memcpy.c           0x00000000   Number         0  memcpya.o ABSOLUTE
    ../../microlib/stubs.s                   0x00000000   Number         0  iusefp.o ABSOLUTE
    ../../poly.c                             0x00000000   Number         0  poly.o ABSOLUTE
    ../../pow.c                              0x00000000   Number         0  pow.o ABSOLUTE
    ../../pow.c                              0x00000000   Number         0  pow_x.o ABSOLUTE
    ../../qnan.c                             0x00000000   Number         0  qnan.o ABSOLUTE
    ../../rred.c                             0x00000000   Number         0  rred.o ABSOLUTE
    ../../sin.c                              0x00000000   Number         0  sin_x.o ABSOLUTE
    ../../sin.c                              0x00000000   Number         0  sin.o ABSOLUTE
    ../../sin_i.c                            0x00000000   Number         0  sin_i_x.o ABSOLUTE
    ../../sin_i.c                            0x00000000   Number         0  sin_i.o ABSOLUTE
    ../../sqrt.c                             0x00000000   Number         0  sqrt_x.o ABSOLUTE
    ../../sqrt.c                             0x00000000   Number         0  sqrt.o ABSOLUTE
    ../../tan.c                              0x00000000   Number         0  tan_x.o ABSOLUTE
    ../../tan.c                              0x00000000   Number         0  tan.o ABSOLUTE
    ../../tan_i.c                            0x00000000   Number         0  tan_i_x.o ABSOLUTE
    ../../tan_i.c                            0x00000000   Number         0  tan_i.o ABSOLUTE
    ..\..\..\Libraries\CMSIS\ST\STM32F4xx\Source\Templates\arm\startup_stm32f4xx.s 0x00000000   Number         0  startup_stm32f4xx.o ABSOLUTE
    ..\..\..\Libraries\STM32F4xx_StdPeriph_Driver\src\misc.c 0x00000000   Number         0  misc.o ABSOLUTE
    ..\..\..\Libraries\STM32F4xx_StdPeriph_Driver\src\stm32f4xx_exti.c 0x00000000   Number         0  stm32f4xx_exti.o ABSOLUTE
    ..\..\..\Libraries\STM32F4xx_StdPeriph_Driver\src\stm32f4xx_gpio.c 0x00000000   Number         0  stm32f4xx_gpio.o ABSOLUTE
    ..\..\..\Libraries\STM32F4xx_StdPeriph_Driver\src\stm32f4xx_rcc.c 0x00000000   Number         0  stm32f4xx_rcc.o ABSOLUTE
    ..\..\..\Libraries\STM32F4xx_StdPeriph_Driver\src\stm32f4xx_syscfg.c 0x00000000   Number         0  stm32f4xx_syscfg.o ABSOLUTE
    ..\..\..\Libraries\STM32F4xx_StdPeriph_Driver\src\stm32f4xx_usart.c 0x00000000   Number         0  stm32f4xx_usart.o ABSOLUTE
    ..\..\..\Utilities\STM32F4-Discovery\stm32f4_discovery.c 0x00000000   Number         0  stm32f4_discovery.o ABSOLUTE
    ..\NanoVM.c                              0x00000000   Number         0  nanovm.o ABSOLUTE
    ..\STM32F4_Discovery\adc.c               0x00000000   Number         0  adc.o ABSOLUTE
    ..\STM32F4_Discovery\display.c           0x00000000   Number         0  display.o ABSOLUTE
    ..\STM32F4_Discovery\ir_rc5.c            0x00000000   Number         0  ir_rc5.o ABSOLUTE
    ..\STM32F4_Discovery\mouse.c             0x00000000   Number         0  mouse.o ABSOLUTE
    ..\STM32F4_Discovery\native_bot.c        0x00000000   Number         0  native_bot.o ABSOLUTE
    ..\STM32F4_Discovery\native_clock.c      0x00000000   Number         0  native_clock.o ABSOLUTE
    ..\STM32F4_Discovery\native_display.c    0x00000000   Number         0  native_display.o ABSOLUTE
    ..\STM32F4_Discovery\native_distancesensor.c 0x00000000   Number         0  native_distancesensor.o ABSOLUTE
    ..\STM32F4_Discovery\native_edgedetector.c 0x00000000   Number         0  native_edgedetector.o ABSOLUTE
    ..\STM32F4_Discovery\native_impl.c       0x00000000   Number         0  native_impl.o ABSOLUTE
    ..\STM32F4_Discovery\native_irreceiver.c 0x00000000   Number         0  native_irreceiver.o ABSOLUTE
    ..\STM32F4_Discovery\native_ldrsensor.c  0x00000000   Number         0  native_ldrsensor.o ABSOLUTE
    ..\STM32F4_Discovery\native_leds.c       0x00000000   Number         0  native_leds.o ABSOLUTE
    ..\STM32F4_Discovery\native_lightbarrier.c 0x00000000   Number         0  native_lightbarrier.o ABSOLUTE
    ..\STM32F4_Discovery\native_linedetector.c 0x00000000   Number         0  native_linedetector.o ABSOLUTE
    ..\STM32F4_Discovery\native_motor.c      0x00000000   Number         0  native_motor.o ABSOLUTE
    ..\STM32F4_Discovery\native_mouse.c      0x00000000   Number         0  native_mouse.o ABSOLUTE
    ..\STM32F4_Discovery\native_servo.c      0x00000000   Number         0  native_servo.o ABSOLUTE
    ..\STM32F4_Discovery\native_shuttersensor.c 0x00000000   Number         0  native_shuttersensor.o ABSOLUTE
    ..\STM32F4_Discovery\native_wheelencoder.c 0x00000000   Number         0  native_wheelencoder.o ABSOLUTE
    ..\STM32F4_Discovery\pid.c               0x00000000   Number         0  pid.o ABSOLUTE
    ..\STM32F4_Discovery\pwm.c               0x00000000   Number         0  pwm.o ABSOLUTE
    ..\STM32F4_Discovery\shift.c             0x00000000   Number         0  shift.o ABSOLUTE
    ..\STM32F4_Discovery\wheelencoder.c      0x00000000   Number         0  wheelencoder.o ABSOLUTE
    ..\\..\\..\\Libraries\\STM32F4xx_StdPeriph_Driver\\src\\misc.c 0x00000000   Number         0  misc.o ABSOLUTE
    ..\\..\\..\\Libraries\\STM32F4xx_StdPeriph_Driver\\src\\stm32f4xx_exti.c 0x00000000   Number         0  stm32f4xx_exti.o ABSOLUTE
    ..\\..\\..\\Libraries\\STM32F4xx_StdPeriph_Driver\\src\\stm32f4xx_gpio.c 0x00000000   Number         0  stm32f4xx_gpio.o ABSOLUTE
    ..\\..\\..\\Libraries\\STM32F4xx_StdPeriph_Driver\\src\\stm32f4xx_rcc.c 0x00000000   Number         0  stm32f4xx_rcc.o ABSOLUTE
    ..\\..\\..\\Libraries\\STM32F4xx_StdPeriph_Driver\\src\\stm32f4xx_syscfg.c 0x00000000   Number         0  stm32f4xx_syscfg.o ABSOLUTE
    ..\\..\\..\\Libraries\\STM32F4xx_StdPeriph_Driver\\src\\stm32f4xx_usart.c 0x00000000   Number         0  stm32f4xx_usart.o ABSOLUTE
    ..\\..\\..\\Utilities\\STM32F4-Discovery\\stm32f4_discovery.c 0x00000000   Number         0  stm32f4_discovery.o ABSOLUTE
    ..\\NanoVM.c                             0x00000000   Number         0  nanovm.o ABSOLUTE
    ..\\STM32F4_Discovery\\adc.c             0x00000000   Number         0  adc.o ABSOLUTE
    ..\\STM32F4_Discovery\\native_clock.c    0x00000000   Number         0  native_clock.o ABSOLUTE
    ..\\STM32F4_Discovery\\native_impl.c     0x00000000   Number         0  native_impl.o ABSOLUTE
    ..\\STM32F4_Discovery\\native_leds.c     0x00000000   Number         0  native_leds.o ABSOLUTE
    ..\\STM32F4_Discovery\\native_motor.c    0x00000000   Number         0  native_motor.o ABSOLUTE
    ..\\STM32F4_Discovery\\pwm.c             0x00000000   Number         0  pwm.o ABSOLUTE
    ..\\delay.c                              0x00000000   Number         0  delay.o ABSOLUTE
    ..\\kernel\\scheduler.c                  0x00000000   Number         0  scheduler.o ABSOLUTE
    ..\\stm32f4xx_it.c                       0x00000000   Number         0  stm32f4xx_it.o ABSOLUTE
    ..\\system_stm32f4xx.c                   0x00000000   Number         0  system_stm32f4xx.o ABSOLUTE
    ..\\uart.c                               0x00000000   Number         0  uart.o ABSOLUTE
    ..\array.c                               0x00000000   Number         0  array.o ABSOLUTE
    ..\debug.c                               0x00000000   Number         0  debug.o ABSOLUTE
    ..\delay.c                               0x00000000   Number         0  delay.o ABSOLUTE
    ..\error.c                               0x00000000   Number         0  error.o ABSOLUTE
    ..\heap.c                                0x00000000   Number         0  heap.o ABSOLUTE
    ..\kernel\context.s                      0x00000000   Number         0  context.o ABSOLUTE
    ..\kernel\scheduler.c                    0x00000000   Number         0  scheduler.o ABSOLUTE
    ..\kernel\task.c                         0x00000000   Number         0  task.o ABSOLUTE
    ..\loader.c                              0x00000000   Number         0  loader.o ABSOLUTE
    ..\mutex.c                               0x00000000   Number         0  mutex.o ABSOLUTE
    ..\native_exception.c                    0x00000000   Number         0  native_exception.o ABSOLUTE
    ..\native_formatter.c                    0x00000000   Number         0  native_formatter.o ABSOLUTE
    ..\native_lcd.c                          0x00000000   Number         0  native_lcd.o ABSOLUTE
    ..\native_math.c                         0x00000000   Number         0  native_math.o ABSOLUTE
    ..\native_stdio.c                        0x00000000   Number         0  native_stdio.o ABSOLUTE
    ..\native_thread.c                       0x00000000   Number         0  native_thread.o ABSOLUTE
    ..\nvmcomm1.c                            0x00000000   Number         0  nvmcomm1.o ABSOLUTE
    ..\nvmcomm2.c                            0x00000000   Number         0  nvmcomm2.o ABSOLUTE
    ..\nvmfile.c                             0x00000000   Number         0  nvmfile.o ABSOLUTE
    ..\nvmstring.c                           0x00000000   Number         0  nvmstring.o ABSOLUTE
    ..\stack.c                               0x00000000   Number         0  stack.o ABSOLUTE
    ..\stm32f4xx_it.c                        0x00000000   Number         0  stm32f4xx_it.o ABSOLUTE
    ..\system_stm32f4xx.c                    0x00000000   Number         0  system_stm32f4xx.o ABSOLUTE
    ..\uart.c                                0x00000000   Number         0  uart.o ABSOLUTE
    ..\utils.c                               0x00000000   Number         0  utils.o ABSOLUTE
    ..\vm.c                                  0x00000000   Number         0  vm.o ABSOLUTE
    cdcmple.s                                0x00000000   Number         0  cdcmple.o ABSOLUTE
    cdrcmple.s                               0x00000000   Number         0  cdrcmple.o ABSOLUTE
    dc.s                                     0x00000000   Number         0  dc.o ABSOLUTE
    handlers.s                               0x00000000   Number         0  handlers.o ABSOLUTE
    init.s                                   0x00000000   Number         0  init.o ABSOLUTE
    RESET                                    0x08000000   Section      392  startup_stm32f4xx.o(RESET)
    .ARM.Collect$$$$00000000                 0x08000188   Section        0  entry.o(.ARM.Collect$$$$00000000)
    .ARM.Collect$$$$00000001                 0x08000188   Section        4  entry2.o(.ARM.Collect$$$$00000001)
    .ARM.Collect$$$$00000004                 0x0800018c   Section        4  entry5.o(.ARM.Collect$$$$00000004)
    .ARM.Collect$$$$00000008                 0x08000190   Section        0  entry7b.o(.ARM.Collect$$$$00000008)
    .ARM.Collect$$$$00000009                 0x08000190   Section        8  entry8.o(.ARM.Collect$$$$00000009)
    .ARM.Collect$$$$00002712                 0x08000198   Section        4  entry2.o(.ARM.Collect$$$$00002712)
    __lit__00000000                          0x08000198   Data           4  entry2.o(.ARM.Collect$$$$00002712)
    .text                                    0x0800019c   Section       36  startup_stm32f4xx.o(.text)
    $v0                                      0x0800019c   Number         0  startup_stm32f4xx.o(.text)
    .text                                    0x080001c0   Section      164  context.o(.text)
    $v0                                      0x080001c0   Number         0  context.o(.text)
    .text                                    0x08000264   Section        0  uldiv.o(.text)
    .text                                    0x080002c6   Section        0  ldiv.o(.text)
    .text                                    0x08000320   Section        0  llshl.o(.text)
    .text                                    0x0800033e   Section        0  llushr.o(.text)
    .text                                    0x0800035e   Section        0  llsshr.o(.text)
    .text                                    0x08000384   Section        0  rand.o(.text)
    .text                                    0x080003a8   Section        0  memcpya.o(.text)
    .text                                    0x080003cc   Section        0  dadd.o(.text)
    .text                                    0x08000518   Section        0  dmul.o(.text)
    .text                                    0x080005f8   Section        0  dflti.o(.text)
    .text                                    0x0800061a   Section        0  dfixi.o(.text)
    .text                                    0x08000658   Section        0  f2d.o(.text)
    .text                                    0x08000684   Section        0  d2f.o(.text)
    .text                                    0x080006bc   Section        0  fepilogue.o(.text)
    .text                                    0x080006bc   Section        0  iusefp.o(.text)
    .text                                    0x08000728   Section        0  depilogue.o(.text)
    .text                                    0x080007e6   Section        0  ddiv.o(.text)
    .text                                    0x080008c4   Section        0  dscalb.o(.text)
    .text                                    0x080008f2   Section        0  dsqrt.o(.text)
    .text                                    0x08000994   Section       40  cdcmple.o(.text)
    .text                                    0x080009bc   Section       40  cdrcmple.o(.text)
    .text                                    0x080009e4   Section       36  init.o(.text)
    .text                                    0x08000a08   Section        0  dfltui.o(.text)
    .text                                    0x08000a22   Section        0  __dczerorl2.o(.text)
    i.ADC_Cmd                                0x08000a7e   Section        0  adc.o(i.ADC_Cmd)
    i.ADC_CommonInit                         0x08000a94   Section        0  adc.o(i.ADC_CommonInit)
    i.ADC_Conversion_Data                    0x08000acc   Section        0  adc.o(i.ADC_Conversion_Data)
    i.ADC_GetFlagStatus                      0x08000afc   Section        0  adc.o(i.ADC_GetFlagStatus)
    i.ADC_Init                               0x08000b10   Section        0  adc.o(i.ADC_Init)
    i.ADC_RegularChannelConfig               0x08000b64   Section        0  adc.o(i.ADC_RegularChannelConfig)
    i.ADC_SoftwareStartConv                  0x08000c1e   Section        0  adc.o(i.ADC_SoftwareStartConv)
    i.BusFault_Handler                       0x08000c28   Section        0  stm32f4xx_it.o(i.BusFault_Handler)
    i.DebugMon_Handler                       0x08000c2c   Section        0  stm32f4xx_it.o(i.DebugMon_Handler)
    i.Do_scheduling                          0x08000c30   Section        0  scheduler.o(i.Do_scheduling)
    i.Do_scheduling_isr                      0x08000c60   Section        0  scheduler.o(i.Do_scheduling_isr)
    i.GPIO_Init                              0x08000c90   Section        0  stm32f4xx_gpio.o(i.GPIO_Init)
    i.GPIO_PinAFConfig                       0x08000d20   Section        0  stm32f4xx_gpio.o(i.GPIO_PinAFConfig)
    i.GPIO_ResetBits                         0x08000d66   Section        0  stm32f4xx_gpio.o(i.GPIO_ResetBits)
    i.GPIO_SetBits                           0x08000d6a   Section        0  stm32f4xx_gpio.o(i.GPIO_SetBits)
    i.GPIO_WriteBit                          0x08000d6e   Section        0  stm32f4xx_gpio.o(i.GPIO_WriteBit)
    i.HardFault_Handler                      0x08000d78   Section        0  stm32f4xx_it.o(i.HardFault_Handler)
    i.Init_idle_task                         0x08000d7c   Section        0  task.o(i.Init_idle_task)
    i.Init_scheduler                         0x08000dbc   Section        0  scheduler.o(i.Init_scheduler)
    i.Maintread_invoke                       0x08000de4   Section        0  nanovm.o(i.Maintread_invoke)
    i.MemManage_Handler                      0x08000df8   Section        0  stm32f4xx_it.o(i.MemManage_Handler)
    i.MutexInit                              0x08000dfc   Section        0  mutex.o(i.MutexInit)
    i.MutexLock                              0x08000e14   Section        0  mutex.o(i.MutexLock)
    i.MutexUnlock                            0x08000e84   Section        0  mutex.o(i.MutexUnlock)
    i.NMI_Handler                            0x08000ec8   Section        0  stm32f4xx_it.o(i.NMI_Handler)
    i.PendSV_Handler                         0x08000eca   Section        0  stm32f4xx_it.o(i.PendSV_Handler)
    i.RCC_AHB1PeriphClockCmd                 0x08000ecc   Section        0  stm32f4xx_rcc.o(i.RCC_AHB1PeriphClockCmd)
    i.RCC_APB1PeriphClockCmd                 0x08000eec   Section        0  stm32f4xx_rcc.o(i.RCC_APB1PeriphClockCmd)
    i.RCC_APB2PeriphClockCmd                 0x08000f0c   Section        0  stm32f4xx_rcc.o(i.RCC_APB2PeriphClockCmd)
    i.RCC_GetClocksFreq                      0x08000f2c   Section        0  stm32f4xx_rcc.o(i.RCC_GetClocksFreq)
    i.STM_EVAL_COMInit                       0x0800100c   Section        0  uart.o(i.STM_EVAL_COMInit)
    i.STM_EVAL_LEDOn                         0x080010fc   Section        0  stm32f4_discovery.o(i.STM_EVAL_LEDOn)
    i.SVC_Handler                            0x08001114   Section        0  stm32f4xx_it.o(i.SVC_Handler)
    i.SetSysClock                            0x08001118   Section        0  system_stm32f4xx.o(i.SetSysClock)
    SetSysClock                              0x08001119   Thumb Code   198  system_stm32f4xx.o(i.SetSysClock)
    i.SysTick_Handler                        0x080011f0   Section        0  stm32f4xx_it.o(i.SysTick_Handler)
    i.SystemInit                             0x08001214   Section        0  system_stm32f4xx.o(i.SystemInit)
    i.TIM3_IRQHandler                        0x0800127c   Section        0  stm32f4xx_it.o(i.TIM3_IRQHandler)
    i.TIM_ClearITPendingBit                  0x0800128c   Section        0  stm32f4xx_it.o(i.TIM_ClearITPendingBit)
    i.TIM_Cmd                                0x08001292   Section        0  pwm.o(i.TIM_Cmd)
    i.TIM_Config                             0x080012ac   Section        0  native_clock.o(i.TIM_Config)
    i.TIM_TimeBaseInit                       0x08001304   Section        0  pwm.o(i.TIM_TimeBaseInit)
    i.Task_dequeue                           0x08001388   Section        0  scheduler.o(i.Task_dequeue)
    i.Task_enqueue                           0x08001414   Section        0  scheduler.o(i.Task_enqueue)
    i.Task_exit                              0x080014b0   Section        0  task.o(i.Task_exit)
    i.Task_init                              0x080014d0   Section        0  task.o(i.Task_init)
    i.Task_init_context                      0x08001508   Section        0  task.o(i.Task_init_context)
    i.Task_select                            0x08001540   Section        0  scheduler.o(i.Task_select)
    i.Task_start                             0x0800158c   Section        0  task.o(i.Task_start)
    i.Task_wait                              0x0800159c   Section        0  scheduler.o(i.Task_wait)
    i.Task_wakeup_all                        0x080015c0   Section        0  scheduler.o(i.Task_wakeup_all)
    i.USART_Cmd                              0x080015e4   Section        0  stm32f4xx_usart.o(i.USART_Cmd)
    i.USART_GetFlagStatus                    0x080015fc   Section        0  stm32f4xx_usart.o(i.USART_GetFlagStatus)
    i.USART_Init                             0x08001618   Section        0  stm32f4xx_usart.o(i.USART_Init)
    i.USART_SendData                         0x080016ec   Section        0  stm32f4xx_usart.o(i.USART_SendData)
    i.UsageFault_Handler                     0x080016f4   Section        0  stm32f4xx_it.o(i.UsageFault_Handler)
    i.__ARM_fpclassify                       0x080016f8   Section        0  fpclassify.o(i.__ARM_fpclassify)
    i.__hardfp_acos                          0x08001728   Section        0  acos.o(i.__hardfp_acos)
    i.__hardfp_asin                          0x08001a78   Section        0  asin.o(i.__hardfp_asin)
    i.__hardfp_atan                          0x08001de8   Section        0  atan.o(i.__hardfp_atan)
    i.__hardfp_atan2                         0x080020d0   Section        0  atan2.o(i.__hardfp_atan2)
    i.__hardfp_ceil                          0x080022b8   Section        0  ceil.o(i.__hardfp_ceil)
    i.__hardfp_cos                           0x080023d0   Section        0  cos.o(i.__hardfp_cos)
    i.__hardfp_exp                           0x080024a8   Section        0  exp.o(i.__hardfp_exp)
    i.__hardfp_fabs                          0x08002810   Section        0  fabs.o(i.__hardfp_fabs)
    i.__hardfp_floor                         0x08002828   Section        0  floor.o(i.__hardfp_floor)
    i.__hardfp_log                           0x08002940   Section        0  log.o(i.__hardfp_log)
    i.__hardfp_pow                           0x08002d28   Section        0  pow.o(i.__hardfp_pow)
    i.__hardfp_sin                           0x080039d0   Section        0  sin.o(i.__hardfp_sin)
    i.__hardfp_sqrt                          0x08003aa8   Section        0  sqrt.o(i.__hardfp_sqrt)
    i.__hardfp_tan                           0x08003b20   Section        0  tan.o(i.__hardfp_tan)
    i.__ieee754_rem_pio2                     0x08003bc0   Section        0  rred.o(i.__ieee754_rem_pio2)
    i.__kernel_cos                           0x08004010   Section        0  cos_i.o(i.__kernel_cos)
    i.__kernel_poly                          0x08004180   Section        0  poly.o(i.__kernel_poly)
    i.__kernel_sin                           0x08004278   Section        0  sin_i.o(i.__kernel_sin)
    i.__kernel_tan                           0x080043a8   Section        0  tan_i.o(i.__kernel_tan)
    i.__mathlib_dbl_underflow                0x08004700   Section        0  dunder.o(i.__mathlib_dbl_underflow)
    i.__scatterload_copy                     0x08004720   Section       14  handlers.o(i.__scatterload_copy)
    i.__scatterload_null                     0x0800472e   Section        2  handlers.o(i.__scatterload_null)
    i.__scatterload_zeroinit                 0x08004730   Section       14  handlers.o(i.__scatterload_zeroinit)
    i.__set_errno                            0x08004740   Section        0  errno.o(i.__set_errno)
    i.adc_init                               0x0800474c   Section        0  adc.o(i.adc_init)
    i.adc_read                               0x080047f0   Section        0  adc.o(i.adc_read)
    i.array_baload                           0x08004808   Section        0  array.o(i.array_baload)
    i.array_bastore                          0x0800481a   Section        0  array.o(i.array_bastore)
    i.array_faload                           0x08004832   Section        0  array.o(i.array_faload)
    i.array_fastore                          0x0800484a   Section        0  array.o(i.array_fastore)
    i.array_iaload                           0x0800486e   Section        0  array.o(i.array_iaload)
    i.array_iastore                          0x08004882   Section        0  array.o(i.array_iastore)
    i.array_length                           0x0800489c   Section        0  array.o(i.array_length)
    i.array_new                              0x080048bc   Section        0  array.o(i.array_new)
    i.array_typelen                          0x080048e8   Section        0  array.o(i.array_typelen)
    i.atan                                   0x08004916   Section        0  atan.o(i.atan)
    i.delay_ms                               0x08004928   Section        0  delay.o(i.delay_ms)
    i.delay_us                               0x08004948   Section        0  delay.o(i.delay_us)
    i.display_clear                          0x08004960   Section        0  display.o(i.display_clear)
    i.display_cmd                            0x08004970   Section        0  display.o(i.display_cmd)
    i.display_cursor                         0x08004972   Section        0  display.o(i.display_cursor)
    i.display_data                           0x080049b2   Section        0  display.o(i.display_data)
    i.error                                  0x080049b4   Section        0  error.o(i.error)
    i.fabs                                   0x080049e2   Section        0  fabs.o(i.fabs)
    i.format_bool                            0x08004a04   Section        0  native_formatter.o(i.format_bool)
    i.format_float                           0x08004a70   Section        0  native_formatter.o(i.format_float)
    i.format_int                             0x08004d1c   Section        0  native_formatter.o(i.format_int)
    i.heap_alloc                             0x08004e0e   Section        0  heap.o(i.heap_alloc)
    i.heap_alloc_internal                    0x08004e40   Section        0  heap.o(i.heap_alloc_internal)
    i.heap_fieldref                          0x08004eb0   Section        0  heap.o(i.heap_fieldref)
    i.heap_garbage_collect                   0x08004f0c   Section        0  heap.o(i.heap_garbage_collect)
    i.heap_get_addr                          0x08004f8c   Section        0  heap.o(i.heap_get_addr)
    i.heap_get_base                          0x08004fa4   Section        0  heap.o(i.heap_get_base)
    i.heap_get_len                           0x08004fac   Section        0  heap.o(i.heap_get_len)
    i.heap_init                              0x08004fc8   Section        0  heap.o(i.heap_init)
    i.heap_memcpy_up                         0x08004fe0   Section        0  heap.o(i.heap_memcpy_up)
    i.heap_new_id                            0x08005000   Section        0  heap.o(i.heap_new_id)
    i.heap_realloc                           0x08005020   Section        0  heap.o(i.heap_realloc)
    i.heap_search                            0x08005080   Section        0  heap.o(i.heap_search)
    i.heap_steal                             0x080050b8   Section        0  heap.o(i.heap_steal)
    i.heap_unsteal                           0x08005110   Section        0  heap.o(i.heap_unsteal)
    i.inttostr                               0x08005160   Section        0  native_formatter.o(i.inttostr)
    i.ir_init                                0x08005196   Section        0  ir_rc5.o(i.ir_init)
    i.ir_read                                0x08005198   Section        0  ir_rc5.o(i.ir_read)
    i.kernel_main                            0x080051a8   Section        0  nanovm.o(i.kernel_main)
    i.kernel_tickhandler                     0x080051d4   Section        0  scheduler.o(i.kernel_tickhandler)
    i.main                                   0x08005210   Section        0  nanovm.o(i.main)
    i.make_format_descr                      0x08005244   Section        0  native_formatter.o(i.make_format_descr)
    i.maus_image_prepare                     0x0800535c   Section        0  mouse.o(i.maus_image_prepare)
    i.maus_image_read                        0x0800537c   Section        0  mouse.o(i.maus_image_read)
    i.maus_sens_init                         0x080053b0   Section        0  mouse.o(i.maus_sens_init)
    i.maus_sens_read                         0x080053b2   Section        0  mouse.o(i.maus_sens_read)
    i.maus_sens_readByte                     0x080053c8   Section        0  mouse.o(i.maus_sens_readByte)
    i.maus_sens_write                        0x080053cc   Section        0  mouse.o(i.maus_sens_write)
    i.maus_sens_writeByte                    0x080053ee   Section        0  mouse.o(i.maus_sens_writeByte)
    i.motor_pwm_generate                     0x080053f0   Section        0  pwm.o(i.motor_pwm_generate)
    i.motor_pwm_init                         0x0800550c   Section        0  pwm.o(i.motor_pwm_init)
    i.native_ctbot_bot_init                  0x08005548   Section        0  native_bot.o(i.native_ctbot_bot_init)
    i.native_ctbot_bot_invoke                0x0800554c   Section        0  native_bot.o(i.native_ctbot_bot_invoke)
    i.native_ctbot_clock_init                0x080055ec   Section        0  native_clock.o(i.native_ctbot_clock_init)
    i.native_ctbot_clock_invoke              0x080055f4   Section        0  native_clock.o(i.native_ctbot_clock_invoke)
    i.native_ctbot_display_invoke            0x0800563c   Section        0  native_display.o(i.native_ctbot_display_invoke)
    i.native_ctbot_distsensor_init           0x080056ae   Section        0  native_distancesensor.o(i.native_ctbot_distsensor_init)
    i.native_ctbot_distsensor_invoke         0x080056b0   Section        0  native_distancesensor.o(i.native_ctbot_distsensor_invoke)
    i.native_ctbot_edgedetector_init         0x08005744   Section        0  native_edgedetector.o(i.native_ctbot_edgedetector_init)
    i.native_ctbot_edgedetector_invoke       0x08005748   Section        0  native_edgedetector.o(i.native_ctbot_edgedetector_invoke)
    i.native_ctbot_irreceiver_init           0x080057dc   Section        0  native_irreceiver.o(i.native_ctbot_irreceiver_init)
    i.native_ctbot_irreceiver_invoke         0x080057e4   Section        0  native_irreceiver.o(i.native_ctbot_irreceiver_invoke)
    i.native_ctbot_ldrsensor_init            0x080057fc   Section        0  native_ldrsensor.o(i.native_ctbot_ldrsensor_init)
    i.native_ctbot_ldrsensor_invoke          0x08005800   Section        0  native_ldrsensor.o(i.native_ctbot_ldrsensor_invoke)
    i.native_ctbot_leds_invoke               0x08005850   Section        0  native_leds.o(i.native_ctbot_leds_invoke)
    i.native_ctbot_lightbarrier_init         0x0800588c   Section        0  native_lightbarrier.o(i.native_ctbot_lightbarrier_init)
    i.native_ctbot_lightbarrier_invoke       0x08005890   Section        0  native_lightbarrier.o(i.native_ctbot_lightbarrier_invoke)
    i.native_ctbot_linedetector_init         0x080058ec   Section        0  native_linedetector.o(i.native_ctbot_linedetector_init)
    i.native_ctbot_linedetector_invoke       0x080058f0   Section        0  native_linedetector.o(i.native_ctbot_linedetector_invoke)
    i.native_ctbot_motor_init                0x080059ac   Section        0  native_motor.o(i.native_ctbot_motor_init)
    i.native_ctbot_motor_invoke              0x080059b4   Section        0  native_motor.o(i.native_ctbot_motor_invoke)
    i.native_ctbot_mouse_init                0x08005a84   Section        0  native_mouse.o(i.native_ctbot_mouse_init)
    i.native_ctbot_mouse_invoke              0x08005a8c   Section        0  native_mouse.o(i.native_ctbot_mouse_invoke)
    i.native_ctbot_servo_init                0x08005b06   Section        0  native_servo.o(i.native_ctbot_servo_init)
    i.native_ctbot_servo_invoke              0x08005b0e   Section        0  native_servo.o(i.native_ctbot_servo_invoke)
    i.native_ctbot_shuttersensor_init        0x08005b46   Section        0  native_shuttersensor.o(i.native_ctbot_shuttersensor_init)
    i.native_ctbot_shuttersensor_invoke      0x08005b48   Section        0  native_shuttersensor.o(i.native_ctbot_shuttersensor_invoke)
    i.native_ctbot_wheelencoder_init         0x08005ba4   Section        0  native_wheelencoder.o(i.native_ctbot_wheelencoder_init)
    i.native_ctbot_wheelencoder_invoke       0x08005bac   Section        0  native_wheelencoder.o(i.native_ctbot_wheelencoder_invoke)
    i.native_dtoa                            0x08005c5c   Section        0  native_stdio.o(i.native_dtoa)
    i.native_exception_invoke                0x08005c5e   Section        0  native_exception.o(i.native_exception_invoke)
    i.native_formatter_invoke                0x08005c72   Section        0  native_formatter.o(i.native_formatter_invoke)
    i.native_ftoa                            0x08005db4   Section        0  native_stdio.o(i.native_ftoa)
    i.native_getchar                         0x08005e48   Section        0  nvmstring.o(i.native_getchar)
    i.native_init                            0x08005e60   Section        0  native_impl.o(i.native_init)
    i.native_invoke                          0x08005f14   Section        0  native_impl.o(i.native_invoke)
    i.native_itoa                            0x08006090   Section        0  native_stdio.o(i.native_itoa)
    i.native_java_io_inputstream_invoke      0x080060e4   Section        0  native_stdio.o(i.native_java_io_inputstream_invoke)
    i.native_java_io_printstream_invoke      0x08006114   Section        0  native_stdio.o(i.native_java_io_printstream_invoke)
    i.native_java_lang_object_invoke         0x080061c6   Section        0  native_impl.o(i.native_java_lang_object_invoke)
    i.native_java_lang_stringbuffer_invoke   0x080061da   Section        0  native_stdio.o(i.native_java_lang_stringbuffer_invoke)
    i.native_ltoa                            0x08006370   Section        0  native_stdio.o(i.native_ltoa)
    i.native_math_invoke                     0x0800641c   Section        0  native_math.o(i.native_math_invoke)
    i.native_new                             0x080069d8   Section        0  native_impl.o(i.native_new)
    i.native_print                           0x08006a3c   Section        0  native_stdio.o(i.native_print)
    native_print                             0x08006a3d   Thumb Code    66  native_stdio.o(i.native_print)
    i.native_strcat                          0x08006a7e   Section        0  nvmstring.o(i.native_strcat)
    i.native_strcpy                          0x08006a98   Section        0  nvmstring.o(i.native_strcpy)
    i.native_strlen                          0x08006ac8   Section        0  nvmstring.o(i.native_strlen)
    i.native_strncpy                         0x08006afa   Section        0  nvmstring.o(i.native_strncpy)
    i.native_thread_init                     0x08006b3c   Section        0  native_thread.o(i.native_thread_init)
    i.native_thread_invoke                   0x08006b70   Section        0  native_thread.o(i.native_thread_invoke)
    i.nvm_float2stack                        0x08006c10   Section        0  vm.o(i.nvm_float2stack)
    i.nvm_long2stack                         0x08006c72   Section        0  vm.o(i.nvm_long2stack)
    i.nvm_stack2double                       0x08006c7c   Section        0  vm.o(i.nvm_stack2double)
    i.nvm_stack2float                        0x08006c7e   Section        0  vm.o(i.nvm_stack2float)
    i.nvm_stack2int                          0x08006ce2   Section        0  vm.o(i.nvm_stack2int)
    i.nvm_stack2long                         0x08006ce4   Section        0  vm.o(i.nvm_stack2long)
    i.nvmfile_call_main                      0x08006d10   Section        0  nvmfile.o(i.nvmfile_call_main)
    i.nvmfile_get_addr                       0x08006d54   Section        0  nvmfile.o(i.nvmfile_get_addr)
    i.nvmfile_get_class_fields               0x08006d74   Section        0  nvmfile.o(i.nvmfile_get_class_fields)
    i.nvmfile_get_constant                   0x08006d8c   Section        0  nvmfile.o(i.nvmfile_get_constant)
    i.nvmfile_get_constant64                 0x08006dcc   Section        0  nvmfile.o(i.nvmfile_get_constant64)
    i.nvmfile_get_method_by_class_and_id     0x08006dfc   Section        0  nvmfile.o(i.nvmfile_get_method_by_class_and_id)
    i.nvmfile_get_method_by_fixed_class_and_id 0x08006e28   Section        0  nvmfile.o(i.nvmfile_get_method_by_fixed_class_and_id)
    i.nvmfile_get_method_hdr                 0x08006e74   Section        0  nvmfile.o(i.nvmfile_get_method_hdr)
    i.nvmfile_get_static_fields              0x08006e94   Section        0  nvmfile.o(i.nvmfile_get_static_fields)
    i.nvmfile_init                           0x08006ea4   Section        0  nvmfile.o(i.nvmfile_init)
    i.nvmfile_read                           0x08006f3c   Section        0  nvmfile.o(i.nvmfile_read)
    i.nvmfile_read08                         0x08006f54   Section        0  nvmfile.o(i.nvmfile_read08)
    i.nvmfile_read16                         0x08006f66   Section        0  nvmfile.o(i.nvmfile_read16)
    i.nvmfile_read32                         0x08006f78   Section        0  nvmfile.o(i.nvmfile_read32)
    i.nvmfile_read64                         0x08006f82   Section        0  nvmfile.o(i.nvmfile_read64)
    i.pid_reset                              0x08006f98   Section        0  pid.o(i.pid_reset)
    i.servo_pwm_generate                     0x08006fb4   Section        0  pwm.o(i.servo_pwm_generate)
    i.servo_pwm_init                         0x0800701c   Section        0  pwm.o(i.servo_pwm_init)
    i.servo_release                          0x0800705c   Section        0  pwm.o(i.servo_release)
    i.set_motor_speed                        0x08007080   Section        0  pwm.o(i.set_motor_speed)
    i.set_servo_position                     0x0800709c   Section        0  pwm.o(i.set_servo_position)
    i.shift_clear                            0x080070b8   Section        0  shift.o(i.shift_clear)
    i.shift_data                             0x080070ba   Section        0  shift.o(i.shift_data)
    i.shift_data_out                         0x080070d0   Section        0  shift.o(i.shift_data_out)
    i.sqrt                                   0x080070d2   Section        0  sqrt.o(i.sqrt)
    i.stack_add_sp                           0x08007140   Section        0  stack.o(i.stack_add_sp)
    i.stack_get_sp                           0x08007158   Section        0  stack.o(i.stack_get_sp)
    i.stack_get_static                       0x08007164   Section        0  stack.o(i.stack_get_static)
    i.stack_heap_id_in_use                   0x08007178   Section        0  stack.o(i.stack_heap_id_in_use)
    i.stack_init                             0x080071bc   Section        0  stack.o(i.stack_init)
    i.stack_is_empty                         0x080071f8   Section        0  stack.o(i.stack_is_empty)
    i.stack_peek                             0x08007214   Section        0  stack.o(i.stack_peek)
    i.stack_peek_addr                        0x08007228   Section        0  stack.o(i.stack_peek_addr)
    i.stack_peek_double                      0x08007244   Section        0  stack.o(i.stack_peek_double)
    i.stack_peek_float                       0x08007260   Section        0  stack.o(i.stack_peek_float)
    i.stack_peek_int                         0x0800727c   Section        0  stack.o(i.stack_peek_int)
    i.stack_peek_long                        0x08007298   Section        0  stack.o(i.stack_peek_long)
    i.stack_pop                              0x080072b4   Section        0  stack.o(i.stack_pop)
    i.stack_pop_addr                         0x080072d0   Section        0  stack.o(i.stack_pop_addr)
    i.stack_pop_float                        0x080072f4   Section        0  stack.o(i.stack_pop_float)
    i.stack_pop_int                          0x08007318   Section        0  stack.o(i.stack_pop_int)
    i.stack_pop_long                         0x0800733c   Section        0  stack.o(i.stack_pop_long)
    i.stack_push                             0x08007374   Section        0  stack.o(i.stack_push)
    i.stack_push64                           0x0800738c   Section        0  stack.o(i.stack_push64)
    i.stack_save_base                        0x080073c8   Section        0  stack.o(i.stack_save_base)
    i.stack_set_static                       0x080073dc   Section        0  stack.o(i.stack_set_static)
    i.uart_available                         0x080073ec   Section        0  uart.o(i.uart_available)
    i.uart_init                              0x080073f0   Section        0  uart.o(i.uart_init)
    i.uart_putc                              0x0800743c   Section        0  uart.o(i.uart_putc)
    i.uart_read_byte                         0x0800745c   Section        0  uart.o(i.uart_read_byte)
    i.utils_memcpy                           0x08007460   Section        0  utils.o(i.utils_memcpy)
    i.utils_strlen                           0x0800747c   Section        0  utils.o(i.utils_strlen)
    i.vm_get_addr                            0x08007490   Section        0  vm.o(i.vm_get_addr)
    i.vm_init                                0x080074be   Section        0  vm.o(i.vm_init)
    i.vm_new                                 0x080074d6   Section        0  vm.o(i.vm_new)
    i.vm_run                                 0x08007514   Section        0  vm.o(i.vm_run)
    i.wheelencoder_init                      0x08008684   Section        0  wheelencoder.o(i.wheelencoder_init)
    .constdata                               0x080086d0   Section       48  uart.o(.constdata)
    .constdata                               0x08008700   Section       37  stm32f4_discovery.o(.constdata)
    .constdata                               0x08008728   Section       80  acos.o(.constdata)
    pS                                       0x08008728   Data          48  acos.o(.constdata)
    qS                                       0x08008758   Data          32  acos.o(.constdata)
    .constdata                               0x08008778   Section       80  asin.o(.constdata)
    pS                                       0x08008778   Data          48  asin.o(.constdata)
    qS                                       0x080087a8   Data          32  asin.o(.constdata)
    .constdata                               0x080087c8   Section      152  atan.o(.constdata)
    atanhi                                   0x080087c8   Data          32  atan.o(.constdata)
    atanlo                                   0x080087e8   Data          32  atan.o(.constdata)
    aTodd                                    0x08008808   Data          40  atan.o(.constdata)
    aTeven                                   0x08008830   Data          48  atan.o(.constdata)
    .constdata                               0x08008860   Section       88  exp.o(.constdata)
    halF                                     0x08008860   Data          16  exp.o(.constdata)
    ln2HI                                    0x08008870   Data          16  exp.o(.constdata)
    ln2LO                                    0x08008880   Data          16  exp.o(.constdata)
    P                                        0x08008890   Data          40  exp.o(.constdata)
    .constdata                               0x080088b8   Section       56  log.o(.constdata)
    Lg2                                      0x080088b8   Data          24  log.o(.constdata)
    Lg                                       0x080088d0   Data          32  log.o(.constdata)
    .constdata                               0x080088f0   Section      136  pow.o(.constdata)
    bp                                       0x080088f0   Data          16  pow.o(.constdata)
    dp_h                                     0x08008900   Data          16  pow.o(.constdata)
    dp_l                                     0x08008910   Data          16  pow.o(.constdata)
    L                                        0x08008920   Data          48  pow.o(.constdata)
    P                                        0x08008950   Data          40  pow.o(.constdata)
    .constdata                               0x08008978   Section       48  cos_i.o(.constdata)
    C                                        0x08008978   Data          48  cos_i.o(.constdata)
    .constdata                               0x080089a8   Section        8  qnan.o(.constdata)
    .constdata                               0x080089b0   Section      200  rred.o(.constdata)
    pio2s                                    0x080089b0   Data          48  rred.o(.constdata)
    twooverpi                                0x080089e0   Data         152  rred.o(.constdata)
    .constdata                               0x08008a78   Section       40  sin_i.o(.constdata)
    S                                        0x08008a78   Data          40  sin_i.o(.constdata)
    .constdata                               0x08008aa0   Section       96  tan_i.o(.constdata)
    Todd                                     0x08008aa0   Data          48  tan_i.o(.constdata)
    Teven                                    0x08008ad0   Data          48  tan_i.o(.constdata)
    .data                                    0x20000000   Section       20  system_stm32f4xx.o(.data)
    .data                                    0x20000014   Section        2  heap.o(.data)
    .data                                    0x20000016   Section     8194  nvmfile.o(.data)
    nvmfile                                  0x20000016   Data        8192  nvmfile.o(.data)
    .data                                    0x20002018   Section       37  uart.o(.data)
    .data                                    0x20002040   Section       24  stm32f4_discovery.o(.data)
    .data                                    0x20002058   Section       16  stm32f4xx_rcc.o(.data)
    APBAHBPrescTable                         0x20002058   Data          16  stm32f4xx_rcc.o(.data)
    .data                                    0x20002068   Section       28  adc.o(.data)
    .data                                    0x20002084   Section        8  ir_rc5.o(.data)
    ir_lastsample                            0x20002084   Data           1  ir_rc5.o(.data)
    ir_bittimer                              0x20002085   Data           1  ir_rc5.o(.data)
    ir_data_tmp                              0x20002086   Data           2  ir_rc5.o(.data)
    ir_bitcount                              0x20002088   Data           1  ir_rc5.o(.data)
    .data                                    0x2000208c   Section        1  mouse.o(.data)
    firstRead                                0x2000208c   Data           1  mouse.o(.data)
    .data                                    0x2000208e   Section        4  native_ldrsensor.o(.data)
    .data                                    0x20002094   Section        4  native_leds.o(.data)
    leds                                     0x20002094   Data           4  native_leds.o(.data)
    .data                                    0x20002098   Section       16  native_linedetector.o(.data)
    .data                                    0x200020a8   Section       24  pid.o(.data)
    pid_left_sum                             0x200020b4   Data           2  pid.o(.data)
    pid_right_sum                            0x200020b6   Data           2  pid.o(.data)
    pid_dir_sum                              0x200020b8   Data           2  pid.o(.data)
    pid_left_last                            0x200020ba   Data           2  pid.o(.data)
    pid_right_last                           0x200020bc   Data           2  pid.o(.data)
    pid_left_hist_pos                        0x200020be   Data           1  pid.o(.data)
    pid_right_hist_pos                       0x200020bf   Data           1  pid.o(.data)
    .data                                    0x200020c0   Section       48  pwm.o(.data)
    .data                                    0x200020f0   Section        2  shift.o(.data)
    .data                                    0x200020f2   Section       10  wheelencoder.o(.data)
    .data                                    0x200020fc   Section        4  native_distancesensor.o(.data)
    .data                                    0x20002100   Section        4  native_edgedetector.o(.data)
    .data                                    0x20002104   Section     1033  scheduler.o(.data)
    .data                                    0x2000250d   Section        1  task.o(.data)
    .data                                    0x20002510   Section        4  rand.o(.data)
    _rand_state                              0x20002510   Data           4  rand.o(.data)
    .data                                    0x20002514   Section        4  errno.o(.data)
    _errno                                   0x20002514   Data           4  errno.o(.data)
    .bss                                     0x20002518   Section     2048  heap.o(.bss)
    .bss                                     0x20002d18   Section       16  uart.o(.bss)
    .bss                                     0x20002d28   Section       96  pwm.o(.bss)
    .bss                                     0x20002d88   Section      360  mutex.o(.bss)
    .bss                                     0x20002ef0   Section      288  scheduler.o(.bss)
    .bss                                     0x20003010   Section     4544  task.o(.bss)
    STACK                                    0x200041d0   Section     1024  startup_stm32f4xx.o(STACK)

    Global Symbols

    Symbol Name                              Value     Ov Type        Size  Object(Section)

    BuildAttributes$$THM_ISAv4$E$P$D$K$B$S$7EM$VFPi3$EXTD16$VFPS$VFMA$PE$A:L22UL41UL21$X:L11$S22US41US21$IEEE1$IW$USESV6$~STKCKD$USESV7$~SHL$OTIME$ROPI$IEEEX$EBA8$MICROLIB$REQ8$EABIv2 0x00000000   Number         0  anon$$obj.o ABSOLUTE
    __ARM_use_no_argv                        0x00000000   Number         0  nanovm.o ABSOLUTE
    _clock_init                               - Undefined Weak Reference
    __Vectors_Size                           0x00000188   Number         0  startup_stm32f4xx.o ABSOLUTE
    __Vectors                                0x08000000   Data           4  startup_stm32f4xx.o(RESET)
    __Vectors_End                            0x08000188   Data           0  startup_stm32f4xx.o(RESET)
    __main                                   0x08000189   Thumb Code     0  entry.o(.ARM.Collect$$$$00000000)
    _main_stk                                0x08000189   Thumb Code     0  entry2.o(.ARM.Collect$$$$00000001)
    _main_scatterload                        0x0800018d   Thumb Code     0  entry5.o(.ARM.Collect$$$$00000004)
    __main_after_scatterload                 0x08000191   Thumb Code     0  entry5.o(.ARM.Collect$$$$00000004)
    _main_clock                              0x08000191   Thumb Code     0  entry7b.o(.ARM.Collect$$$$00000008)
    _main_init                               0x08000191   Thumb Code     0  entry8.o(.ARM.Collect$$$$00000009)
    Reset_Handler                            0x0800019d   Thumb Code     8  startup_stm32f4xx.o(.text)
    ADC_IRQHandler                           0x080001b7   Thumb Code     0  startup_stm32f4xx.o(.text)
    CAN1_RX0_IRQHandler                      0x080001b7   Thumb Code     0  startup_stm32f4xx.o(.text)
    CAN1_RX1_IRQHandler                      0x080001b7   Thumb Code     0  startup_stm32f4xx.o(.text)
    CAN1_SCE_IRQHandler                      0x080001b7   Thumb Code     0  startup_stm32f4xx.o(.text)
    CAN1_TX_IRQHandler                       0x080001b7   Thumb Code     0  startup_stm32f4xx.o(.text)
    CAN2_RX0_IRQHandler                      0x080001b7   Thumb Code     0  startup_stm32f4xx.o(.text)
    CAN2_RX1_IRQHandler                      0x080001b7   Thumb Code     0  startup_stm32f4xx.o(.text)
    CAN2_SCE_IRQHandler                      0x080001b7   Thumb Code     0  startup_stm32f4xx.o(.text)
    CAN2_TX_IRQHandler                       0x080001b7   Thumb Code     0  startup_stm32f4xx.o(.text)
    CRYP_IRQHandler                          0x080001b7   Thumb Code     0  startup_stm32f4xx.o(.text)
    DCMI_IRQHandler                          0x080001b7   Thumb Code     0  startup_stm32f4xx.o(.text)
    DMA1_Stream0_IRQHandler                  0x080001b7   Thumb Code     0  startup_stm32f4xx.o(.text)
    DMA1_Stream1_IRQHandler                  0x080001b7   Thumb Code     0  startup_stm32f4xx.o(.text)
    DMA1_Stream2_IRQHandler                  0x080001b7   Thumb Code     0  startup_stm32f4xx.o(.text)
    DMA1_Stream3_IRQHandler                  0x080001b7   Thumb Code     0  startup_stm32f4xx.o(.text)
    DMA1_Stream4_IRQHandler                  0x080001b7   Thumb Code     0  startup_stm32f4xx.o(.text)
    DMA1_Stream5_IRQHandler                  0x080001b7   Thumb Code     0  startup_stm32f4xx.o(.text)
    DMA1_Stream6_IRQHandler                  0x080001b7   Thumb Code     0  startup_stm32f4xx.o(.text)
    DMA1_Stream7_IRQHandler                  0x080001b7   Thumb Code     0  startup_stm32f4xx.o(.text)
    DMA2_Stream0_IRQHandler                  0x080001b7   Thumb Code     0  startup_stm32f4xx.o(.text)
    DMA2_Stream1_IRQHandler                  0x080001b7   Thumb Code     0  startup_stm32f4xx.o(.text)
    DMA2_Stream2_IRQHandler                  0x080001b7   Thumb Code     0  startup_stm32f4xx.o(.text)
    DMA2_Stream3_IRQHandler                  0x080001b7   Thumb Code     0  startup_stm32f4xx.o(.text)
    DMA2_Stream4_IRQHandler                  0x080001b7   Thumb Code     0  startup_stm32f4xx.o(.text)
    DMA2_Stream5_IRQHandler                  0x080001b7   Thumb Code     0  startup_stm32f4xx.o(.text)
    DMA2_Stream6_IRQHandler                  0x080001b7   Thumb Code     0  startup_stm32f4xx.o(.text)
    DMA2_Stream7_IRQHandler                  0x080001b7   Thumb Code     0  startup_stm32f4xx.o(.text)
    ETH_IRQHandler                           0x080001b7   Thumb Code     0  startup_stm32f4xx.o(.text)
    ETH_WKUP_IRQHandler                      0x080001b7   Thumb Code     0  startup_stm32f4xx.o(.text)
    EXTI0_IRQHandler                         0x080001b7   Thumb Code     0  startup_stm32f4xx.o(.text)
    EXTI15_10_IRQHandler                     0x080001b7   Thumb Code     0  startup_stm32f4xx.o(.text)
    EXTI1_IRQHandler                         0x080001b7   Thumb Code     0  startup_stm32f4xx.o(.text)
    EXTI2_IRQHandler                         0x080001b7   Thumb Code     0  startup_stm32f4xx.o(.text)
    EXTI3_IRQHandler                         0x080001b7   Thumb Code     0  startup_stm32f4xx.o(.text)
    EXTI4_IRQHandler                         0x080001b7   Thumb Code     0  startup_stm32f4xx.o(.text)
    EXTI9_5_IRQHandler                       0x080001b7   Thumb Code     0  startup_stm32f4xx.o(.text)
    FLASH_IRQHandler                         0x080001b7   Thumb Code     0  startup_stm32f4xx.o(.text)
    FPU_IRQHandler                           0x080001b7   Thumb Code     0  startup_stm32f4xx.o(.text)
    FSMC_IRQHandler                          0x080001b7   Thumb Code     0  startup_stm32f4xx.o(.text)
    HASH_RNG_IRQHandler                      0x080001b7   Thumb Code     0  startup_stm32f4xx.o(.text)
    I2C1_ER_IRQHandler                       0x080001b7   Thumb Code     0  startup_stm32f4xx.o(.text)
    I2C1_EV_IRQHandler                       0x080001b7   Thumb Code     0  startup_stm32f4xx.o(.text)
    I2C2_ER_IRQHandler                       0x080001b7   Thumb Code     0  startup_stm32f4xx.o(.text)
    I2C2_EV_IRQHandler                       0x080001b7   Thumb Code     0  startup_stm32f4xx.o(.text)
    I2C3_ER_IRQHandler                       0x080001b7   Thumb Code     0  startup_stm32f4xx.o(.text)
    I2C3_EV_IRQHandler                       0x080001b7   Thumb Code     0  startup_stm32f4xx.o(.text)
    OTG_FS_IRQHandler                        0x080001b7   Thumb Code     0  startup_stm32f4xx.o(.text)
    OTG_FS_WKUP_IRQHandler                   0x080001b7   Thumb Code     0  startup_stm32f4xx.o(.text)
    OTG_HS_EP1_IN_IRQHandler                 0x080001b7   Thumb Code     0  startup_stm32f4xx.o(.text)
    OTG_HS_EP1_OUT_IRQHandler                0x080001b7   Thumb Code     0  startup_stm32f4xx.o(.text)
    OTG_HS_IRQHandler                        0x080001b7   Thumb Code     0  startup_stm32f4xx.o(.text)
    OTG_HS_WKUP_IRQHandler                   0x080001b7   Thumb Code     0  startup_stm32f4xx.o(.text)
    PVD_IRQHandler                           0x080001b7   Thumb Code     0  startup_stm32f4xx.o(.text)
    RCC_IRQHandler                           0x080001b7   Thumb Code     0  startup_stm32f4xx.o(.text)
    RTC_Alarm_IRQHandler                     0x080001b7   Thumb Code     0  startup_stm32f4xx.o(.text)
    RTC_WKUP_IRQHandler                      0x080001b7   Thumb Code     0  startup_stm32f4xx.o(.text)
    SDIO_IRQHandler                          0x080001b7   Thumb Code     0  startup_stm32f4xx.o(.text)
    SPI1_IRQHandler                          0x080001b7   Thumb Code     0  startup_stm32f4xx.o(.text)
    SPI2_IRQHandler                          0x080001b7   Thumb Code     0  startup_stm32f4xx.o(.text)
    SPI3_IRQHandler                          0x080001b7   Thumb Code     0  startup_stm32f4xx.o(.text)
    TAMP_STAMP_IRQHandler                    0x080001b7   Thumb Code     0  startup_stm32f4xx.o(.text)
    TIM1_BRK_TIM9_IRQHandler                 0x080001b7   Thumb Code     0  startup_stm32f4xx.o(.text)
    TIM1_CC_IRQHandler                       0x080001b7   Thumb Code     0  startup_stm32f4xx.o(.text)
    TIM1_TRG_COM_TIM11_IRQHandler            0x080001b7   Thumb Code     0  startup_stm32f4xx.o(.text)
    TIM1_UP_TIM10_IRQHandler                 0x080001b7   Thumb Code     0  startup_stm32f4xx.o(.text)
    TIM2_IRQHandler                          0x080001b7   Thumb Code     0  startup_stm32f4xx.o(.text)
    TIM4_IRQHandler                          0x080001b7   Thumb Code     0  startup_stm32f4xx.o(.text)
    TIM5_IRQHandler                          0x080001b7   Thumb Code     0  startup_stm32f4xx.o(.text)
    TIM6_DAC_IRQHandler                      0x080001b7   Thumb Code     0  startup_stm32f4xx.o(.text)
    TIM7_IRQHandler                          0x080001b7   Thumb Code     0  startup_stm32f4xx.o(.text)
    TIM8_BRK_TIM12_IRQHandler                0x080001b7   Thumb Code     0  startup_stm32f4xx.o(.text)
    TIM8_CC_IRQHandler                       0x080001b7   Thumb Code     0  startup_stm32f4xx.o(.text)
    TIM8_TRG_COM_TIM14_IRQHandler            0x080001b7   Thumb Code     0  startup_stm32f4xx.o(.text)
    TIM8_UP_TIM13_IRQHandler                 0x080001b7   Thumb Code     0  startup_stm32f4xx.o(.text)
    UART4_IRQHandler                         0x080001b7   Thumb Code     0  startup_stm32f4xx.o(.text)
    UART5_IRQHandler                         0x080001b7   Thumb Code     0  startup_stm32f4xx.o(.text)
    USART1_IRQHandler                        0x080001b7   Thumb Code     0  startup_stm32f4xx.o(.text)
    USART2_IRQHandler                        0x080001b7   Thumb Code     0  startup_stm32f4xx.o(.text)
    USART3_IRQHandler                        0x080001b7   Thumb Code     0  startup_stm32f4xx.o(.text)
    USART6_IRQHandler                        0x080001b7   Thumb Code     0  startup_stm32f4xx.o(.text)
    WWDG_IRQHandler                          0x080001b7   Thumb Code     0  startup_stm32f4xx.o(.text)
    Exit_handler_mode                        0x080001c1   Thumb Code     8  context.o(.text)
    Context_switch_isr                       0x080001c9   Thumb Code    76  context.o(.text)
    Context_switch                           0x08000215   Thumb Code    46  context.o(.text)
    IntSaveDisableIRQ                        0x08000243   Thumb Code    18  context.o(.text)
    IntRestoreIRQ                            0x08000255   Thumb Code    10  context.o(.text)
    __aeabi_uldivmod                         0x08000265   Thumb Code    98  uldiv.o(.text)
    __aeabi_ldivmod                          0x080002c7   Thumb Code    90  ldiv.o(.text)
    __aeabi_llsl                             0x08000321   Thumb Code    30  llshl.o(.text)
    _ll_shift_l                              0x08000321   Thumb Code     0  llshl.o(.text)
    __aeabi_llsr                             0x0800033f   Thumb Code    32  llushr.o(.text)
    _ll_ushift_r                             0x0800033f   Thumb Code     0  llushr.o(.text)
    __aeabi_lasr                             0x0800035f   Thumb Code    36  llsshr.o(.text)
    _ll_sshift_r                             0x0800035f   Thumb Code     0  llsshr.o(.text)
    rand                                     0x08000385   Thumb Code    20  rand.o(.text)
    srand                                    0x08000399   Thumb Code     6  rand.o(.text)
    __aeabi_memcpy                           0x080003a9   Thumb Code    36  memcpya.o(.text)
    __aeabi_memcpy4                          0x080003a9   Thumb Code     0  memcpya.o(.text)
    __aeabi_memcpy8                          0x080003a9   Thumb Code     0  memcpya.o(.text)
    __aeabi_dadd                             0x080003cd   Thumb Code   320  dadd.o(.text)
    __aeabi_dsub                             0x0800050d   Thumb Code     6  dadd.o(.text)
    __aeabi_drsub                            0x08000513   Thumb Code     6  dadd.o(.text)
    __aeabi_dmul                             0x08000519   Thumb Code   224  dmul.o(.text)
    __aeabi_i2d                              0x080005f9   Thumb Code    34  dflti.o(.text)
    __aeabi_d2iz                             0x0800061b   Thumb Code    62  dfixi.o(.text)
    __aeabi_f2d                              0x08000659   Thumb Code    44  f2d.o(.text)
    __aeabi_d2f                              0x08000685   Thumb Code    56  d2f.o(.text)
    __I$use$fp                               0x080006bd   Thumb Code     0  iusefp.o(.text)
    _float_round                             0x080006bd   Thumb Code    18  fepilogue.o(.text)
    _float_epilogue                          0x080006cf   Thumb Code    90  fepilogue.o(.text)
    _double_round                            0x08000729   Thumb Code    26  depilogue.o(.text)
    _double_epilogue                         0x08000743   Thumb Code   164  depilogue.o(.text)
    __aeabi_ddiv                             0x080007e7   Thumb Code   222  ddiv.o(.text)
    __ARM_scalbn                             0x080008c5   Thumb Code    46  dscalb.o(.text)
    scalbn                                   0x080008c5   Thumb Code     0  dscalb.o(.text)
    _dsqrt                                   0x080008f3   Thumb Code   162  dsqrt.o(.text)
    __aeabi_cdcmpeq                          0x08000995   Thumb Code     0  cdcmple.o(.text)
    __aeabi_cdcmple                          0x08000995   Thumb Code    38  cdcmple.o(.text)
    __aeabi_cdrcmple                         0x080009bd   Thumb Code    38  cdrcmple.o(.text)
    __scatterload                            0x080009e5   Thumb Code    28  init.o(.text)
    __scatterload_rt2                        0x080009e5   Thumb Code     0  init.o(.text)
    __aeabi_ui2d                             0x08000a09   Thumb Code    26  dfltui.o(.text)
    __decompress                             0x08000a23   Thumb Code     0  __dczerorl2.o(.text)
    __decompress1                            0x08000a23   Thumb Code    92  __dczerorl2.o(.text)
    ADC_Cmd                                  0x08000a7f   Thumb Code    22  adc.o(i.ADC_Cmd)
    ADC_CommonInit                           0x08000a95   Thumb Code    44  adc.o(i.ADC_CommonInit)
    ADC_Conversion_Data                      0x08000acd   Thumb Code    42  adc.o(i.ADC_Conversion_Data)
    ADC_GetFlagStatus                        0x08000afd   Thumb Code    18  adc.o(i.ADC_GetFlagStatus)
    ADC_Init                                 0x08000b11   Thumb Code    74  adc.o(i.ADC_Init)
    ADC_RegularChannelConfig                 0x08000b65   Thumb Code   186  adc.o(i.ADC_RegularChannelConfig)
    ADC_SoftwareStartConv                    0x08000c1f   Thumb Code    10  adc.o(i.ADC_SoftwareStartConv)
    BusFault_Handler                         0x08000c29   Thumb Code     4  stm32f4xx_it.o(i.BusFault_Handler)
    DebugMon_Handler                         0x08000c2d   Thumb Code     2  stm32f4xx_it.o(i.DebugMon_Handler)
    Do_scheduling                            0x08000c31   Thumb Code    42  scheduler.o(i.Do_scheduling)
    Do_scheduling_isr                        0x08000c61   Thumb Code    42  scheduler.o(i.Do_scheduling_isr)
    GPIO_Init                                0x08000c91   Thumb Code   144  stm32f4xx_gpio.o(i.GPIO_Init)
    GPIO_PinAFConfig                         0x08000d21   Thumb Code    70  stm32f4xx_gpio.o(i.GPIO_PinAFConfig)
    GPIO_ResetBits                           0x08000d67   Thumb Code     4  stm32f4xx_gpio.o(i.GPIO_ResetBits)
    GPIO_SetBits                             0x08000d6b   Thumb Code     4  stm32f4xx_gpio.o(i.GPIO_SetBits)
    GPIO_WriteBit                            0x08000d6f   Thumb Code    10  stm32f4xx_gpio.o(i.GPIO_WriteBit)
    HardFault_Handler                        0x08000d79   Thumb Code     4  stm32f4xx_it.o(i.HardFault_Handler)
    Init_idle_task                           0x08000d7d   Thumb Code    54  task.o(i.Init_idle_task)
    Init_scheduler                           0x08000dbd   Thumb Code    36  scheduler.o(i.Init_scheduler)
    Maintread_invoke                         0x08000de5   Thumb Code    20  nanovm.o(i.Maintread_invoke)
    MemManage_Handler                        0x08000df9   Thumb Code     4  stm32f4xx_it.o(i.MemManage_Handler)
    MutexInit                                0x08000dfd   Thumb Code    24  mutex.o(i.MutexInit)
    MutexLock                                0x08000e15   Thumb Code   106  mutex.o(i.MutexLock)
    MutexUnlock                              0x08000e85   Thumb Code    62  mutex.o(i.MutexUnlock)
    NMI_Handler                              0x08000ec9   Thumb Code     2  stm32f4xx_it.o(i.NMI_Handler)
    PendSV_Handler                           0x08000ecb   Thumb Code     2  stm32f4xx_it.o(i.PendSV_Handler)
    RCC_AHB1PeriphClockCmd                   0x08000ecd   Thumb Code    26  stm32f4xx_rcc.o(i.RCC_AHB1PeriphClockCmd)
    RCC_APB1PeriphClockCmd                   0x08000eed   Thumb Code    26  stm32f4xx_rcc.o(i.RCC_APB1PeriphClockCmd)
    RCC_APB2PeriphClockCmd                   0x08000f0d   Thumb Code    26  stm32f4xx_rcc.o(i.RCC_APB2PeriphClockCmd)
    RCC_GetClocksFreq                        0x08000f2d   Thumb Code   206  stm32f4xx_rcc.o(i.RCC_GetClocksFreq)
    STM_EVAL_COMInit                         0x0800100d   Thumb Code   190  uart.o(i.STM_EVAL_COMInit)
    STM_EVAL_LEDOn                           0x080010fd   Thumb Code    16  stm32f4_discovery.o(i.STM_EVAL_LEDOn)
    SVC_Handler                              0x08001115   Thumb Code     2  stm32f4xx_it.o(i.SVC_Handler)
    SysTick_Handler                          0x080011f1   Thumb Code    32  stm32f4xx_it.o(i.SysTick_Handler)
    SystemInit                               0x08001215   Thumb Code    88  system_stm32f4xx.o(i.SystemInit)
    TIM3_IRQHandler                          0x0800127d   Thumb Code    12  stm32f4xx_it.o(i.TIM3_IRQHandler)
    TIM_ClearITPendingBit                    0x0800128d   Thumb Code     6  stm32f4xx_it.o(i.TIM_ClearITPendingBit)
    TIM_Cmd                                  0x08001293   Thumb Code    24  pwm.o(i.TIM_Cmd)
    TIM_Config                               0x080012ad   Thumb Code    76  native_clock.o(i.TIM_Config)
    TIM_TimeBaseInit                         0x08001305   Thumb Code   104  pwm.o(i.TIM_TimeBaseInit)
    Task_dequeue                             0x08001389   Thumb Code   124  scheduler.o(i.Task_dequeue)
    Task_enqueue                             0x08001415   Thumb Code   138  scheduler.o(i.Task_enqueue)
    Task_exit                                0x080014b1   Thumb Code    26  task.o(i.Task_exit)
    Task_init                                0x080014d1   Thumb Code    56  task.o(i.Task_init)
    Task_init_context                        0x08001509   Thumb Code    52  task.o(i.Task_init_context)
    Task_select                              0x08001541   Thumb Code    54  scheduler.o(i.Task_select)
    Task_start                               0x0800158d   Thumb Code    16  task.o(i.Task_start)
    Task_wait                                0x0800159d   Thumb Code    36  scheduler.o(i.Task_wait)
    Task_wakeup_all                          0x080015c1   Thumb Code    36  scheduler.o(i.Task_wakeup_all)
    USART_Cmd                                0x080015e5   Thumb Code    24  stm32f4xx_usart.o(i.USART_Cmd)
    USART_GetFlagStatus                      0x080015fd   Thumb Code    26  stm32f4xx_usart.o(i.USART_GetFlagStatus)
    USART_Init                               0x08001619   Thumb Code   204  stm32f4xx_usart.o(i.USART_Init)
    USART_SendData                           0x080016ed   Thumb Code     8  stm32f4xx_usart.o(i.USART_SendData)
    UsageFault_Handler                       0x080016f5   Thumb Code     4  stm32f4xx_it.o(i.UsageFault_Handler)
    __ARM_fpclassify                         0x080016f9   Thumb Code    48  fpclassify.o(i.__ARM_fpclassify)
    __hardfp_acos                            0x08001729   Thumb Code   738  acos.o(i.__hardfp_acos)
    __hardfp_asin                            0x08001a79   Thumb Code   774  asin.o(i.__hardfp_asin)
    __hardfp_atan                            0x08001de9   Thumb Code   636  atan.o(i.__hardfp_atan)
    __hardfp_atan2                           0x080020d1   Thumb Code   422  atan2.o(i.__hardfp_atan2)
    __hardfp_ceil                            0x080022b9   Thumb Code   252  ceil.o(i.__hardfp_ceil)
    __hardfp_cos                             0x080023d1   Thumb Code   200  cos.o(i.__hardfp_cos)
    __hardfp_exp                             0x080024a9   Thumb Code   726  exp.o(i.__hardfp_exp)
    __hardfp_fabs                            0x08002811   Thumb Code    20  fabs.o(i.__hardfp_fabs)
    __hardfp_floor                           0x08002829   Thumb Code   252  floor.o(i.__hardfp_floor)
    __hardfp_log                             0x08002941   Thumb Code   888  log.o(i.__hardfp_log)
    __hardfp_pow                             0x08002d29   Thumb Code  3148  pow.o(i.__hardfp_pow)
    __hardfp_sin                             0x080039d1   Thumb Code   200  sin.o(i.__hardfp_sin)
    __hardfp_sqrt                            0x08003aa9   Thumb Code   120  sqrt.o(i.__hardfp_sqrt)
    __hardfp_tan                             0x08003b21   Thumb Code   142  tan.o(i.__hardfp_tan)
    __ieee754_rem_pio2                       0x08003bc1   Thumb Code   962  rred.o(i.__ieee754_rem_pio2)
    __kernel_cos                             0x08004011   Thumb Code   322  cos_i.o(i.__kernel_cos)
    __kernel_poly                            0x08004181   Thumb Code   248  poly.o(i.__kernel_poly)
    __kernel_sin                             0x08004279   Thumb Code   280  sin_i.o(i.__kernel_sin)
    __kernel_tan                             0x080043a9   Thumb Code   772  tan_i.o(i.__kernel_tan)
    __mathlib_dbl_underflow                  0x08004701   Thumb Code    24  dunder.o(i.__mathlib_dbl_underflow)
    __scatterload_copy                       0x08004721   Thumb Code    14  handlers.o(i.__scatterload_copy)
    __scatterload_null                       0x0800472f   Thumb Code     2  handlers.o(i.__scatterload_null)
    __scatterload_zeroinit                   0x08004731   Thumb Code    14  handlers.o(i.__scatterload_zeroinit)
    __set_errno                              0x08004741   Thumb Code     6  errno.o(i.__set_errno)
    adc_init                                 0x0800474d   Thumb Code   146  adc.o(i.adc_init)
    adc_read                                 0x080047f1   Thumb Code    18  adc.o(i.adc_read)
    array_baload                             0x08004809   Thumb Code    18  array.o(i.array_baload)
    array_bastore                            0x0800481b   Thumb Code    24  array.o(i.array_bastore)
    array_faload                             0x08004833   Thumb Code    24  array.o(i.array_faload)
    array_fastore                            0x0800484b   Thumb Code    36  array.o(i.array_fastore)
    array_iaload                             0x0800486f   Thumb Code    20  array.o(i.array_iaload)
    array_iastore                            0x08004883   Thumb Code    26  array.o(i.array_iastore)
    array_length                             0x0800489d   Thumb Code    32  array.o(i.array_length)
    array_new                                0x080048bd   Thumb Code    44  array.o(i.array_new)
    array_typelen                            0x080048e9   Thumb Code    46  array.o(i.array_typelen)
    atan                                     0x08004917   Thumb Code    16  atan.o(i.atan)
    delay_ms                                 0x08004929   Thumb Code    26  delay.o(i.delay_ms)
    delay_us                                 0x08004949   Thumb Code    20  delay.o(i.delay_us)
    display_clear                            0x08004961   Thumb Code    16  display.o(i.display_clear)
    display_cmd                              0x08004971   Thumb Code     2  display.o(i.display_cmd)
    display_cursor                           0x08004973   Thumb Code    64  display.o(i.display_cursor)
    display_data                             0x080049b3   Thumb Code     2  display.o(i.display_data)
    error                                    0x080049b5   Thumb Code    46  error.o(i.error)
    fabs                                     0x080049e3   Thumb Code    32  fabs.o(i.fabs)
    format_bool                              0x08004a05   Thumb Code    76  native_formatter.o(i.format_bool)
    format_float                             0x08004a71   Thumb Code   684  native_formatter.o(i.format_float)
    format_int                               0x08004d1d   Thumb Code   242  native_formatter.o(i.format_int)
    heap_alloc                               0x08004e0f   Thumb Code    50  heap.o(i.heap_alloc)
    heap_alloc_internal                      0x08004e41   Thumb Code   104  heap.o(i.heap_alloc_internal)
    heap_fieldref                            0x08004eb1   Thumb Code    82  heap.o(i.heap_fieldref)
    heap_garbage_collect                     0x08004f0d   Thumb Code   118  heap.o(i.heap_garbage_collect)
    heap_get_addr                            0x08004f8d   Thumb Code    24  heap.o(i.heap_get_addr)
    heap_get_base                            0x08004fa5   Thumb Code     4  heap.o(i.heap_get_base)
    heap_get_len                             0x08004fad   Thumb Code    26  heap.o(i.heap_get_len)
    heap_init                                0x08004fc9   Thumb Code    20  heap.o(i.heap_init)
    heap_memcpy_up                           0x08004fe1   Thumb Code    32  heap.o(i.heap_memcpy_up)
    heap_new_id                              0x08005001   Thumb Code    30  heap.o(i.heap_new_id)
    heap_realloc                             0x08005021   Thumb Code    88  heap.o(i.heap_realloc)
    heap_search                              0x08005081   Thumb Code    46  heap.o(i.heap_search)
    heap_steal                               0x080050b9   Thumb Code    80  heap.o(i.heap_steal)
    heap_unsteal                             0x08005111   Thumb Code    72  heap.o(i.heap_unsteal)
    inttostr                                 0x08005161   Thumb Code    54  native_formatter.o(i.inttostr)
    ir_init                                  0x08005197   Thumb Code     2  ir_rc5.o(i.ir_init)
    ir_read                                  0x08005199   Thumb Code    12  ir_rc5.o(i.ir_read)
    kernel_main                              0x080051a9   Thumb Code    38  nanovm.o(i.kernel_main)
    kernel_tickhandler                       0x080051d5   Thumb Code    54  scheduler.o(i.kernel_tickhandler)
    main                                     0x08005211   Thumb Code    38  nanovm.o(i.main)
    make_format_descr                        0x08005245   Thumb Code   278  native_formatter.o(i.make_format_descr)
    maus_image_prepare                       0x0800535d   Thumb Code    26  mouse.o(i.maus_image_prepare)
    maus_image_read                          0x0800537d   Thumb Code    46  mouse.o(i.maus_image_read)
    maus_sens_init                           0x080053b1   Thumb Code     2  mouse.o(i.maus_sens_init)
    maus_sens_read                           0x080053b3   Thumb Code    22  mouse.o(i.maus_sens_read)
    maus_sens_readByte                       0x080053c9   Thumb Code     4  mouse.o(i.maus_sens_readByte)
    maus_sens_write                          0x080053cd   Thumb Code    34  mouse.o(i.maus_sens_write)
    maus_sens_writeByte                      0x080053ef   Thumb Code     2  mouse.o(i.maus_sens_writeByte)
    motor_pwm_generate                       0x080053f1   Thumb Code   266  pwm.o(i.motor_pwm_generate)
    motor_pwm_init                           0x0800550d   Thumb Code    56  pwm.o(i.motor_pwm_init)
    native_ctbot_bot_init                    0x08005549   Thumb Code     2  native_bot.o(i.native_ctbot_bot_init)
    native_ctbot_bot_invoke                  0x0800554d   Thumb Code   154  native_bot.o(i.native_ctbot_bot_invoke)
    native_ctbot_clock_init                  0x080055ed   Thumb Code     8  native_clock.o(i.native_ctbot_clock_init)
    native_ctbot_clock_invoke                0x080055f5   Thumb Code    66  native_clock.o(i.native_ctbot_clock_invoke)
    native_ctbot_display_invoke              0x0800563d   Thumb Code   114  native_display.o(i.native_ctbot_display_invoke)
    native_ctbot_distsensor_init             0x080056af   Thumb Code     2  native_distancesensor.o(i.native_ctbot_distsensor_init)
    native_ctbot_distsensor_invoke           0x080056b1   Thumb Code   134  native_distancesensor.o(i.native_ctbot_distsensor_invoke)
    native_ctbot_edgedetector_init           0x08005745   Thumb Code     2  native_edgedetector.o(i.native_ctbot_edgedetector_init)
    native_ctbot_edgedetector_invoke         0x08005749   Thumb Code   134  native_edgedetector.o(i.native_ctbot_edgedetector_invoke)
    native_ctbot_irreceiver_init             0x080057dd   Thumb Code     8  native_irreceiver.o(i.native_ctbot_irreceiver_init)
    native_ctbot_irreceiver_invoke           0x080057e5   Thumb Code    24  native_irreceiver.o(i.native_ctbot_irreceiver_invoke)
    native_ctbot_ldrsensor_init              0x080057fd   Thumb Code     2  native_ldrsensor.o(i.native_ctbot_ldrsensor_init)
    native_ctbot_ldrsensor_invoke            0x08005801   Thumb Code    70  native_ldrsensor.o(i.native_ctbot_ldrsensor_invoke)
    native_ctbot_leds_invoke                 0x08005851   Thumb Code    54  native_leds.o(i.native_ctbot_leds_invoke)
    native_ctbot_lightbarrier_init           0x0800588d   Thumb Code     2  native_lightbarrier.o(i.native_ctbot_lightbarrier_init)
    native_ctbot_lightbarrier_invoke         0x08005891   Thumb Code    88  native_lightbarrier.o(i.native_ctbot_lightbarrier_invoke)
    native_ctbot_linedetector_init           0x080058ed   Thumb Code     2  native_linedetector.o(i.native_ctbot_linedetector_init)
    native_ctbot_linedetector_invoke         0x080058f1   Thumb Code   168  native_linedetector.o(i.native_ctbot_linedetector_invoke)
    native_ctbot_motor_init                  0x080059ad   Thumb Code     8  native_motor.o(i.native_ctbot_motor_init)
    native_ctbot_motor_invoke                0x080059b5   Thumb Code   190  native_motor.o(i.native_ctbot_motor_invoke)
    native_ctbot_mouse_init                  0x08005a85   Thumb Code     8  native_mouse.o(i.native_ctbot_mouse_init)
    native_ctbot_mouse_invoke                0x08005a8d   Thumb Code   122  native_mouse.o(i.native_ctbot_mouse_invoke)
    native_ctbot_servo_init                  0x08005b07   Thumb Code     8  native_servo.o(i.native_ctbot_servo_init)
    native_ctbot_servo_invoke                0x08005b0f   Thumb Code    56  native_servo.o(i.native_ctbot_servo_invoke)
    native_ctbot_shuttersensor_init          0x08005b47   Thumb Code     2  native_shuttersensor.o(i.native_ctbot_shuttersensor_init)
    native_ctbot_shuttersensor_invoke        0x08005b49   Thumb Code    88  native_shuttersensor.o(i.native_ctbot_shuttersensor_invoke)
    native_ctbot_wheelencoder_init           0x08005ba5   Thumb Code     8  native_wheelencoder.o(i.native_ctbot_wheelencoder_init)
    native_ctbot_wheelencoder_invoke         0x08005bad   Thumb Code   156  native_wheelencoder.o(i.native_ctbot_wheelencoder_invoke)
    native_dtoa                              0x08005c5d   Thumb Code     2  native_stdio.o(i.native_dtoa)
    native_exception_invoke                  0x08005c5f   Thumb Code    20  native_exception.o(i.native_exception_invoke)
    native_formatter_invoke                  0x08005c73   Thumb Code   322  native_formatter.o(i.native_formatter_invoke)
    native_ftoa                              0x08005db5   Thumb Code   144  native_stdio.o(i.native_ftoa)
    native_getchar                           0x08005e49   Thumb Code    22  nvmstring.o(i.native_getchar)
    native_init                              0x08005e61   Thumb Code   166  native_impl.o(i.native_init)
    native_invoke                            0x08005f15   Thumb Code   380  native_impl.o(i.native_invoke)
    native_itoa                              0x08006091   Thumb Code    80  native_stdio.o(i.native_itoa)
    native_java_io_inputstream_invoke        0x080060e5   Thumb Code    48  native_stdio.o(i.native_java_io_inputstream_invoke)
    native_java_io_printstream_invoke        0x08006115   Thumb Code   178  native_stdio.o(i.native_java_io_printstream_invoke)
    native_java_lang_object_invoke           0x080061c7   Thumb Code    20  native_impl.o(i.native_java_lang_object_invoke)
    native_java_lang_stringbuffer_invoke     0x080061db   Thumb Code   404  native_stdio.o(i.native_java_lang_stringbuffer_invoke)
    native_ltoa                              0x08006371   Thumb Code   164  native_stdio.o(i.native_ltoa)
    native_math_invoke                       0x0800641d   Thumb Code  1454  native_math.o(i.native_math_invoke)
    native_new                               0x080069d9   Thumb Code   100  native_impl.o(i.native_new)
    native_strcat                            0x08006a7f   Thumb Code    26  nvmstring.o(i.native_strcat)
    native_strcpy                            0x08006a99   Thumb Code    48  nvmstring.o(i.native_strcpy)
    native_strlen                            0x08006ac9   Thumb Code    50  nvmstring.o(i.native_strlen)
    native_strncpy                           0x08006afb   Thumb Code    66  nvmstring.o(i.native_strncpy)
    native_thread_init                       0x08006b3d   Thumb Code    46  native_thread.o(i.native_thread_init)
    native_thread_invoke                     0x08006b71   Thumb Code   140  native_thread.o(i.native_thread_invoke)
    nvm_float2stack                          0x08006c11   Thumb Code    98  vm.o(i.nvm_float2stack)
    nvm_long2stack                           0x08006c73   Thumb Code    10  vm.o(i.nvm_long2stack)
    nvm_stack2double                         0x08006c7d   Thumb Code     2  vm.o(i.nvm_stack2double)
    nvm_stack2float                          0x08006c7f   Thumb Code   100  vm.o(i.nvm_stack2float)
    nvm_stack2int                            0x08006ce3   Thumb Code     2  vm.o(i.nvm_stack2int)
    nvm_stack2long                           0x08006ce5   Thumb Code    42  vm.o(i.nvm_stack2long)
    nvmfile_call_main                        0x08006d11   Thumb Code    64  nvmfile.o(i.nvmfile_call_main)
    nvmfile_get_addr                         0x08006d55   Thumb Code    28  nvmfile.o(i.nvmfile_get_addr)
    nvmfile_get_class_fields                 0x08006d75   Thumb Code    18  nvmfile.o(i.nvmfile_get_class_fields)
    nvmfile_get_constant                     0x08006d8d   Thumb Code    56  nvmfile.o(i.nvmfile_get_constant)
    nvmfile_get_constant64                   0x08006dcd   Thumb Code    42  nvmfile.o(i.nvmfile_get_constant64)
    nvmfile_get_method_by_class_and_id       0x08006dfd   Thumb Code    40  nvmfile.o(i.nvmfile_get_method_by_class_and_id)
    nvmfile_get_method_by_fixed_class_and_id 0x08006e29   Thumb Code    70  nvmfile.o(i.nvmfile_get_method_by_fixed_class_and_id)
    nvmfile_get_method_hdr                   0x08006e75   Thumb Code    28  nvmfile.o(i.nvmfile_get_method_hdr)
    nvmfile_get_static_fields                0x08006e95   Thumb Code    10  nvmfile.o(i.nvmfile_get_static_fields)
    nvmfile_init                             0x08006ea5   Thumb Code   134  nvmfile.o(i.nvmfile_init)
    nvmfile_read                             0x08006f3d   Thumb Code    24  nvmfile.o(i.nvmfile_read)
    nvmfile_read08                           0x08006f55   Thumb Code    18  nvmfile.o(i.nvmfile_read08)
    nvmfile_read16                           0x08006f67   Thumb Code    18  nvmfile.o(i.nvmfile_read16)
    nvmfile_read32                           0x08006f79   Thumb Code    10  nvmfile.o(i.nvmfile_read32)
    nvmfile_read64                           0x08006f83   Thumb Code    22  nvmfile.o(i.nvmfile_read64)
    pid_reset                                0x08006f99   Thumb Code    16  pid.o(i.pid_reset)
    servo_pwm_generate                       0x08006fb5   Thumb Code    88  pwm.o(i.servo_pwm_generate)
    servo_pwm_init                           0x0800701d   Thumb Code    60  pwm.o(i.servo_pwm_init)
    servo_release                            0x0800705d   Thumb Code    26  pwm.o(i.servo_release)
    set_motor_speed                          0x08007081   Thumb Code    18  pwm.o(i.set_motor_speed)
    set_servo_position                       0x0800709d   Thumb Code    20  pwm.o(i.set_servo_position)
    shift_clear                              0x080070b9   Thumb Code     2  shift.o(i.shift_clear)
    shift_data                               0x080070bb   Thumb Code    22  shift.o(i.shift_data)
    shift_data_out                           0x080070d1   Thumb Code     2  shift.o(i.shift_data_out)
    sqrt                                     0x080070d3   Thumb Code   108  sqrt.o(i.sqrt)
    stack_add_sp                             0x08007141   Thumb Code    18  stack.o(i.stack_add_sp)
    stack_get_sp                             0x08007159   Thumb Code     8  stack.o(i.stack_get_sp)
    stack_get_static                         0x08007165   Thumb Code    14  stack.o(i.stack_get_static)
    stack_heap_id_in_use                     0x08007179   Thumb Code    62  stack.o(i.stack_heap_id_in_use)
    stack_init                               0x080071bd   Thumb Code    54  stack.o(i.stack_init)
    stack_is_empty                           0x080071f9   Thumb Code    24  stack.o(i.stack_is_empty)
    stack_peek                               0x08007215   Thumb Code    16  stack.o(i.stack_peek)
    stack_peek_addr                          0x08007229   Thumb Code    22  stack.o(i.stack_peek_addr)
    stack_peek_double                        0x08007245   Thumb Code    22  stack.o(i.stack_peek_double)
    stack_peek_float                         0x08007261   Thumb Code    22  stack.o(i.stack_peek_float)
    stack_peek_int                           0x0800727d   Thumb Code    22  stack.o(i.stack_peek_int)
    stack_peek_long                          0x08007299   Thumb Code    22  stack.o(i.stack_peek_long)
    stack_pop                                0x080072b5   Thumb Code    24  stack.o(i.stack_pop)
    stack_pop_addr                           0x080072d1   Thumb Code    30  stack.o(i.stack_pop_addr)
    stack_pop_float                          0x080072f5   Thumb Code    30  stack.o(i.stack_pop_float)
    stack_pop_int                            0x08007319   Thumb Code    30  stack.o(i.stack_pop_int)
    stack_pop_long                           0x0800733d   Thumb Code    50  stack.o(i.stack_pop_long)
    stack_push                               0x08007375   Thumb Code    18  stack.o(i.stack_push)
    stack_push64                             0x0800738d   Thumb Code    54  stack.o(i.stack_push64)
    stack_save_base                          0x080073c9   Thumb Code    14  stack.o(i.stack_save_base)
    stack_set_static                         0x080073dd   Thumb Code    12  stack.o(i.stack_set_static)
    uart_available                           0x080073ed   Thumb Code     4  uart.o(i.uart_available)
    uart_init                                0x080073f1   Thumb Code    68  uart.o(i.uart_init)
    uart_putc                                0x0800743d   Thumb Code    28  uart.o(i.uart_putc)
    uart_read_byte                           0x0800745d   Thumb Code     4  uart.o(i.uart_read_byte)
    utils_memcpy                             0x08007461   Thumb Code    28  utils.o(i.utils_memcpy)
    utils_strlen                             0x0800747d   Thumb Code    20  utils.o(i.utils_strlen)
    vm_get_addr                              0x08007491   Thumb Code    46  vm.o(i.vm_get_addr)
    vm_init                                  0x080074bf   Thumb Code    24  vm.o(i.vm_init)
    vm_new                                   0x080074d7   Thumb Code    60  vm.o(i.vm_new)
    vm_run                                   0x08007515   Thumb Code  4454  vm.o(i.vm_run)
    wheelencoder_init                        0x08008685   Thumb Code    42  wheelencoder.o(i.wheelencoder_init)
    COM_USART_CLK                            0x080086d0   Data           8  uart.o(.constdata)
    COM_TX_PORT_CLK                          0x080086d8   Data           8  uart.o(.constdata)
    COM_RX_PORT_CLK                          0x080086e0   Data           8  uart.o(.constdata)
    COM_TX_PIN                               0x080086e8   Data           4  uart.o(.constdata)
    COM_RX_PIN                               0x080086ec   Data           4  uart.o(.constdata)
    COM_TX_PIN_SOURCE                        0x080086f0   Data           4  uart.o(.constdata)
    COM_RX_PIN_SOURCE                        0x080086f4   Data           4  uart.o(.constdata)
    COM_TX_AF                                0x080086f8   Data           4  uart.o(.constdata)
    COM_RX_AF                                0x080086fc   Data           4  uart.o(.constdata)
    GPIO_PIN                                 0x08008700   Data           8  stm32f4_discovery.o(.constdata)
    GPIO_CLK                                 0x08008708   Data          16  stm32f4_discovery.o(.constdata)
    BUTTON_PIN                               0x08008718   Data           2  stm32f4_discovery.o(.constdata)
    BUTTON_CLK                               0x0800871c   Data           4  stm32f4_discovery.o(.constdata)
    BUTTON_EXTI_LINE                         0x08008720   Data           2  stm32f4_discovery.o(.constdata)
    BUTTON_PORT_SOURCE                       0x08008722   Data           1  stm32f4_discovery.o(.constdata)
    BUTTON_PIN_SOURCE                        0x08008723   Data           1  stm32f4_discovery.o(.constdata)
    BUTTON_IRQn                              0x08008724   Data           1  stm32f4_discovery.o(.constdata)
    __mathlib_zero                           0x080089a8   Data           8  qnan.o(.constdata)
    Region$$Table$$Base                      0x08008b00   Number         0  anon$$obj.o(Region$$Table)
    Region$$Table$$Limit                     0x08008b20   Number         0  anon$$obj.o(Region$$Table)
    SystemCoreClock                          0x20000000   Data           4  system_stm32f4xx.o(.data)
    AHBPrescTable                            0x20000004   Data          16  system_stm32f4xx.o(.data)
    heap_base                                0x20000014   Data           2  heap.o(.data)
    nvmfile_constant_count                   0x20002016   Data           1  nvmfile.o(.data)
    nvmfile_constant64_count                 0x20002017   Data           1  nvmfile.o(.data)
    COM_USART                                0x20002018   Data           8  uart.o(.data)
    COM_TX_PORT                              0x20002020   Data           8  uart.o(.data)
    COM_RX_PORT                              0x20002028   Data           8  uart.o(.data)
    test_count                               0x20002030   Data           4  uart.o(.data)
    test_index                               0x20002034   Data           4  uart.o(.data)
    idex                                     0x20002038   Data           4  uart.o(.data)
    test                                     0x2000203c   Data           1  uart.o(.data)
    GPIO_PORT                                0x20002040   Data          16  stm32f4_discovery.o(.data)
    BUTTON_PORT                              0x20002050   Data           4  stm32f4_discovery.o(.data)
    NVIC_InitStructure                       0x20002054   Data           4  stm32f4_discovery.o(.data)
    ch_table                                 0x20002068   Data          16  adc.o(.data)
    GPIO_InitStructure                       0x20002078   Data           8  adc.o(.data)
    i                                        0x20002080   Data           4  adc.o(.data)
    ir_data                                  0x2000208a   Data           2  ir_rc5.o(.data)
    value_sen_l                              0x2000208e   Data           2  native_ldrsensor.o(.data)
    value_sen_r                              0x20002090   Data           2  native_ldrsensor.o(.data)
    test_argdata                             0x20002098   Data           4  native_linedetector.o(.data)
    test_argdata2                            0x2000209c   Data           4  native_linedetector.o(.data)
    adc_data                                 0x200020a0   Data           4  native_linedetector.o(.data)
    value_l                                  0x200020a4   Data           2  native_linedetector.o(.data)
    value_r                                  0x200020a6   Data           2  native_linedetector.o(.data)
    pid_left_speed                           0x200020a8   Data           2  pid.o(.data)
    pid_right_speed                          0x200020aa   Data           2  pid.o(.data)
    pid_left_value                           0x200020ac   Data           2  pid.o(.data)
    pid_right_value                          0x200020ae   Data           2  pid.o(.data)
    pid_left_cnt                             0x200020b0   Data           1  pid.o(.data)
    pid_right_cnt                            0x200020b1   Data           1  pid.o(.data)
    pid_mode                                 0x200020b2   Data           1  pid.o(.data)
    CCR1_Val                                 0x200020c0   Data           2  pwm.o(.data)
    CCR2_Val                                 0x200020c2   Data           2  pwm.o(.data)
    CCR3_Val                                 0x200020c4   Data           2  pwm.o(.data)
    CCR4_Val                                 0x200020c6   Data           2  pwm.o(.data)
    PrescalerValue                           0x200020c8   Data           2  pwm.o(.data)
    pwm_servo_1                              0x200020ca   Data           1  pwm.o(.data)
    pwm_servo_2                              0x200020cb   Data           1  pwm.o(.data)
    pwm_motor_l                              0x200020cc   Data           2  pwm.o(.data)
    pwm_motor_r                              0x200020ce   Data           2  pwm.o(.data)
    pwm_servo_1_cnt                          0x200020d0   Data           2  pwm.o(.data)
    pwm_servo_2_cnt                          0x200020d2   Data           2  pwm.o(.data)
    pwm_motor_l_cnt                          0x200020d4   Data           2  pwm.o(.data)
    pwm_motor_r_cnt                          0x200020d6   Data           2  pwm.o(.data)
    pwm_timer_sub                            0x200020d8   Data           2  pwm.o(.data)
    pwm_timer_ms                             0x200020da   Data           2  pwm.o(.data)
    pwm_timer_sec                            0x200020dc   Data           4  pwm.o(.data)
    pwm_value1                               0x200020e0   Data           4  pwm.o(.data)
    pwm_value2                               0x200020e4   Data           4  pwm.o(.data)
    pwm_tick                                 0x200020e8   Data           4  pwm.o(.data)
    servo_pwm_tick                           0x200020ec   Data           4  pwm.o(.data)
    shift_reg_led                            0x200020f0   Data           1  shift.o(.data)
    shift_reg_ena                            0x200020f1   Data           1  shift.o(.data)
    enc_l                                    0x200020f2   Data           1  wheelencoder.o(.data)
    enc_r                                    0x200020f3   Data           1  wheelencoder.o(.data)
    enc_l_cnt                                0x200020f4   Data           1  wheelencoder.o(.data)
    enc_r_cnt                                0x200020f5   Data           1  wheelencoder.o(.data)
    wheelencoder_l                           0x200020f6   Data           2  wheelencoder.o(.data)
    wheelencoder_r                           0x200020f8   Data           2  wheelencoder.o(.data)
    inc_l                                    0x200020fa   Data           1  wheelencoder.o(.data)
    inc_r                                    0x200020fb   Data           1  wheelencoder.o(.data)
    value_dis_l                              0x200020fc   Data           2  native_distancesensor.o(.data)
    value_dis_r                              0x200020fe   Data           2  native_distancesensor.o(.data)
    value_edge_l                             0x20002100   Data           2  native_edgedetector.o(.data)
    value_edge_r                             0x20002102   Data           2  native_edgedetector.o(.data)
    prio_map                                 0x20002104   Data        1024  scheduler.o(.data)
    current_task                             0x20002504   Data           4  scheduler.o(.data)
    high_prio                                0x20002508   Data           1  scheduler.o(.data)
    mid_prio                                 0x20002509   Data           4  scheduler.o(.data)
    SubThread_idx                            0x2000250d   Data           1  task.o(.data)
    heap                                     0x20002518   Data        2048  heap.o(.bss)
    USART_InitStructure                      0x20002d18   Data          16  uart.o(.bss)
    TIM_TimeBaseStructure                    0x20002d28   Data          12  pwm.o(.bss)
    TIM_OCInitStructure                      0x20002d34   Data          20  pwm.o(.bss)
    servo_value                              0x20002d48   Data          32  pwm.o(.bss)
    servo_flag                               0x20002d68   Data          32  pwm.o(.bss)
    mutex_key                                0x20002d88   Data         360  mutex.o(.bss)
    low_prio                                 0x20002ef0   Data          32  scheduler.o(.bss)
    readyQ                                   0x20002f10   Data         256  scheduler.o(.bss)
    MainThread                               0x20003010   Data          64  task.o(.bss)
    SubThread                                0x20003050   Data         320  task.o(.bss)
    MainThread_stack                         0x20003190   Data         512  task.o(.bss)
    SubThread_stack                          0x20003390   Data        2560  task.o(.bss)
    idle_task                                0x20003d90   Data          64  task.o(.bss)
    idle_stack                               0x20003dd0   Data        1024  task.o(.bss)
    __initial_sp                             0x200045d0   Data           0  startup_stm32f4xx.o(STACK)



==============================================================================

Memory Map of the image

  Image Entry point : 0x08000189

  Load Region LR_IROM1 (Base: 0x08000000, Size: 0x0000b038, Max: 0x00100000, ABSOLUTE, COMPRESSED[0x00008c58])

    Execution Region ER_IROM1 (Base: 0x08000000, Size: 0x00008b20, Max: 0x00100000, ABSOLUTE)

    Base Addr    Size         Type   Attr      Idx    E Section Name        Object

    0x08000000   0x00000188   Data   RO            3    RESET               startup_stm32f4xx.o
    0x08000188   0x00000000   Code   RO         3380  * .ARM.Collect$$$$00000000  mc_w.l(entry.o)
    0x08000188   0x00000004   Code   RO         3439    .ARM.Collect$$$$00000001  mc_w.l(entry2.o)
    0x0800018c   0x00000004   Code   RO         3442    .ARM.Collect$$$$00000004  mc_w.l(entry5.o)
    0x08000190   0x00000000   Code   RO         3444    .ARM.Collect$$$$00000008  mc_w.l(entry7b.o)
    0x08000190   0x00000008   Code   RO         3445    .ARM.Collect$$$$00000009  mc_w.l(entry8.o)
    0x08000198   0x00000004   Code   RO         3440    .ARM.Collect$$$$00002712  mc_w.l(entry2.o)
    0x0800019c   0x00000024   Code   RO            4    .text               startup_stm32f4xx.o
    0x080001c0   0x000000a4   Code   RO         3214    .text               context.o
    0x08000264   0x00000062   Code   RO         3383    .text               mc_w.l(uldiv.o)
    0x080002c6   0x0000005a   Code   RO         3385    .text               mc_w.l(ldiv.o)
    0x08000320   0x0000001e   Code   RO         3387    .text               mc_w.l(llshl.o)
    0x0800033e   0x00000020   Code   RO         3389    .text               mc_w.l(llushr.o)
    0x0800035e   0x00000024   Code   RO         3391    .text               mc_w.l(llsshr.o)
    0x08000382   0x00000002   PAD
    0x08000384   0x00000024   Code   RO         3393    .text               mc_w.l(rand.o)
    0x080003a8   0x00000024   Code   RO         3396    .text               mc_w.l(memcpya.o)
    0x080003cc   0x0000014c   Code   RO         3400    .text               mf_w.l(dadd.o)
    0x08000518   0x000000e0   Code   RO         3402    .text               mf_w.l(dmul.o)
    0x080005f8   0x00000022   Code   RO         3404    .text               mf_w.l(dflti.o)
    0x0800061a   0x0000003e   Code   RO         3406    .text               mf_w.l(dfixi.o)
    0x08000658   0x0000002c   Code   RO         3408    .text               mf_w.l(f2d.o)
    0x08000684   0x00000038   Code   RO         3410    .text               mf_w.l(d2f.o)
    0x080006bc   0x00000000   Code   RO         3453    .text               mc_w.l(iusefp.o)
    0x080006bc   0x0000006c   Code   RO         3454    .text               mf_w.l(fepilogue.o)
    0x08000728   0x000000be   Code   RO         3456    .text               mf_w.l(depilogue.o)
    0x080007e6   0x000000de   Code   RO         3458    .text               mf_w.l(ddiv.o)
    0x080008c4   0x0000002e   Code   RO         3462    .text               mf_w.l(dscalb.o)
    0x080008f2   0x000000a2   Code   RO         3464    .text               mf_w.l(dsqrt.o)
    0x08000994   0x00000028   Code   RO         3466    .text               mf_w.l(cdcmple.o)
    0x080009bc   0x00000028   Code   RO         3468    .text               mf_w.l(cdrcmple.o)
    0x080009e4   0x00000024   Code   RO         3470    .text               mc_w.l(init.o)
    0x08000a08   0x0000001a   Code   RO         3472    .text               mf_w.l(dfltui.o)
    0x08000a22   0x0000005c   Code   RO         3482    .text               mc_w.l(__dczerorl2.o)
    0x08000a7e   0x00000016   Code   RO         2095    i.ADC_Cmd           adc.o
    0x08000a94   0x00000038   Code   RO         2096    i.ADC_CommonInit    adc.o
    0x08000acc   0x00000030   Code   RO         2097    i.ADC_Conversion_Data  adc.o
    0x08000afc   0x00000012   Code   RO         2099    i.ADC_GetFlagStatus  adc.o
    0x08000b0e   0x00000002   PAD
    0x08000b10   0x00000054   Code   RO         2100    i.ADC_Init          adc.o
    0x08000b64   0x000000ba   Code   RO         2102    i.ADC_RegularChannelConfig  adc.o
    0x08000c1e   0x0000000a   Code   RO         2103    i.ADC_SoftwareStartConv  adc.o
    0x08000c28   0x00000004   Code   RO          238    i.BusFault_Handler  stm32f4xx_it.o
    0x08000c2c   0x00000002   Code   RO          239    i.DebugMon_Handler  stm32f4xx_it.o
    0x08000c2e   0x00000002   PAD
    0x08000c30   0x00000030   Code   RO         3049    i.Do_scheduling     scheduler.o
    0x08000c60   0x00000030   Code   RO         3050    i.Do_scheduling_isr  scheduler.o
    0x08000c90   0x00000090   Code   RO         1704    i.GPIO_Init         stm32f4xx_gpio.o
    0x08000d20   0x00000046   Code   RO         1705    i.GPIO_PinAFConfig  stm32f4xx_gpio.o
    0x08000d66   0x00000004   Code   RO         1711    i.GPIO_ResetBits    stm32f4xx_gpio.o
    0x08000d6a   0x00000004   Code   RO         1712    i.GPIO_SetBits      stm32f4xx_gpio.o
    0x08000d6e   0x0000000a   Code   RO         1716    i.GPIO_WriteBit     stm32f4xx_gpio.o
    0x08000d78   0x00000004   Code   RO          240    i.HardFault_Handler  stm32f4xx_it.o
    0x08000d7c   0x00000040   Code   RO         3133    i.Init_idle_task    task.o
    0x08000dbc   0x00000028   Code   RO         3051    i.Init_scheduler    scheduler.o
    0x08000de4   0x00000014   Code   RO          146    i.Maintread_invoke  nanovm.o
    0x08000df8   0x00000004   Code   RO          241    i.MemManage_Handler  stm32f4xx_it.o
    0x08000dfc   0x00000018   Code   RO         3018    i.MutexInit         mutex.o
    0x08000e14   0x00000070   Code   RO         3019    i.MutexLock         mutex.o
    0x08000e84   0x00000044   Code   RO         3020    i.MutexUnlock       mutex.o
    0x08000ec8   0x00000002   Code   RO          242    i.NMI_Handler       stm32f4xx_it.o
    0x08000eca   0x00000002   Code   RO          243    i.PendSV_Handler    stm32f4xx_it.o
    0x08000ecc   0x00000020   Code   RO         1303    i.RCC_AHB1PeriphClockCmd  stm32f4xx_rcc.o
    0x08000eec   0x00000020   Code   RO         1312    i.RCC_APB1PeriphClockCmd  stm32f4xx_rcc.o
    0x08000f0c   0x00000020   Code   RO         1315    i.RCC_APB2PeriphClockCmd  stm32f4xx_rcc.o
    0x08000f2c   0x000000e0   Code   RO         1324    i.RCC_GetClocksFreq  stm32f4xx_rcc.o
    0x0800100c   0x000000f0   Code   RO         1052    i.STM_EVAL_COMInit  uart.o
    0x080010fc   0x00000018   Code   RO         1255    i.STM_EVAL_LEDOn    stm32f4_discovery.o
    0x08001114   0x00000002   Code   RO          244    i.SVC_Handler       stm32f4xx_it.o
    0x08001116   0x00000002   PAD
    0x08001118   0x000000d8   Code   RO           11    i.SetSysClock       system_stm32f4xx.o
    0x080011f0   0x00000024   Code   RO          245    i.SysTick_Handler   stm32f4xx_it.o
    0x08001214   0x00000068   Code   RO           13    i.SystemInit        system_stm32f4xx.o
    0x0800127c   0x00000010   Code   RO          246    i.TIM3_IRQHandler   stm32f4xx_it.o
    0x0800128c   0x00000006   Code   RO          247    i.TIM_ClearITPendingBit  stm32f4xx_it.o
    0x08001292   0x00000018   Code   RO         2778    i.TIM_Cmd           pwm.o
    0x080012aa   0x00000002   PAD
    0x080012ac   0x00000058   Code   RO         2386    i.TIM_Config        native_clock.o
    0x08001304   0x00000084   Code   RO         2789    i.TIM_TimeBaseInit  pwm.o
    0x08001388   0x0000008c   Code   RO         3052    i.Task_dequeue      scheduler.o
    0x08001414   0x0000009c   Code   RO         3053    i.Task_enqueue      scheduler.o
    0x080014b0   0x00000020   Code   RO         3134    i.Task_exit         task.o
    0x080014d0   0x00000038   Code   RO         3137    i.Task_init         task.o
    0x08001508   0x00000038   Code   RO         3138    i.Task_init_context  task.o
    0x08001540   0x0000004c   Code   RO         3054    i.Task_select       scheduler.o
    0x0800158c   0x00000010   Code   RO         3141    i.Task_start        task.o
    0x0800159c   0x00000024   Code   RO         3055    i.Task_wait         scheduler.o
    0x080015c0   0x00000024   Code   RO         3057    i.Task_wakeup_all   scheduler.o
    0x080015e4   0x00000018   Code   RO         1911    i.USART_Cmd         stm32f4xx_usart.o
    0x080015fc   0x0000001a   Code   RO         1914    i.USART_GetFlagStatus  stm32f4xx_usart.o
    0x08001616   0x00000002   PAD
    0x08001618   0x000000d4   Code   RO         1918    i.USART_Init        stm32f4xx_usart.o
    0x080016ec   0x00000008   Code   RO         1928    i.USART_SendData    stm32f4xx_usart.o
    0x080016f4   0x00000004   Code   RO          248    i.UsageFault_Handler  stm32f4xx_it.o
    0x080016f8   0x00000030   Code   RO         3417    i.__ARM_fpclassify  m_wm.l(fpclassify.o)
    0x08001728   0x00000350   Code   RO         3218    i.__hardfp_acos     m_wm.l(acos.o)
    0x08001a78   0x00000370   Code   RO         3232    i.__hardfp_asin     m_wm.l(asin.o)
    0x08001de8   0x000002e8   Code   RO         3246    i.__hardfp_atan     m_wm.l(atan.o)
    0x080020d0   0x000001e8   Code   RO         3260    i.__hardfp_atan2    m_wm.l(atan2.o)
    0x080022b8   0x00000118   Code   RO         3272    i.__hardfp_ceil     m_wm.l(ceil.o)
    0x080023d0   0x000000d8   Code   RO         3278    i.__hardfp_cos      m_wm.l(cos.o)
    0x080024a8   0x00000368   Code   RO         3290    i.__hardfp_exp      m_wm.l(exp.o)
    0x08002810   0x00000014   Code   RO         3304    i.__hardfp_fabs     m_wm.l(fabs.o)
    0x08002824   0x00000004   PAD
    0x08002828   0x00000118   Code   RO         3310    i.__hardfp_floor    m_wm.l(floor.o)
    0x08002940   0x000003e4   Code   RO         3316    i.__hardfp_log      m_wm.l(log.o)
    0x08002d24   0x00000004   PAD
    0x08002d28   0x00000ca8   Code   RO         3330    i.__hardfp_pow      m_wm.l(pow.o)
    0x080039d0   0x000000d8   Code   RO         3344    i.__hardfp_sin      m_wm.l(sin.o)
    0x08003aa8   0x00000078   Code   RO         3356    i.__hardfp_sqrt     m_wm.l(sqrt.o)
    0x08003b20   0x000000a0   Code   RO         3368    i.__hardfp_tan      m_wm.l(tan.o)
    0x08003bc0   0x00000450   Code   RO         3422    i.__ieee754_rem_pio2  m_wm.l(rred.o)
    0x08004010   0x00000170   Code   RO         3412    i.__kernel_cos      m_wm.l(cos_i.o)
    0x08004180   0x000000f8   Code   RO         3419    i.__kernel_poly     m_wm.l(poly.o)
    0x08004278   0x00000130   Code   RO         3427    i.__kernel_sin      m_wm.l(sin_i.o)
    0x080043a8   0x00000358   Code   RO         3433    i.__kernel_tan      m_wm.l(tan_i.o)
    0x08004700   0x00000020   Code   RO         3415    i.__mathlib_dbl_underflow  m_wm.l(dunder.o)
    0x08004720   0x0000000e   Code   RO         3476    i.__scatterload_copy  mc_w.l(handlers.o)
    0x0800472e   0x00000002   Code   RO         3477    i.__scatterload_null  mc_w.l(handlers.o)
    0x08004730   0x0000000e   Code   RO         3478    i.__scatterload_zeroinit  mc_w.l(handlers.o)
    0x0800473e   0x00000002   PAD
    0x08004740   0x0000000c   Code   RO         3448    i.__set_errno       mc_w.l(errno.o)
    0x0800474c   0x000000a4   Code   RO         2106    i.adc_init          adc.o
    0x080047f0   0x00000018   Code   RO         2107    i.adc_read          adc.o
    0x08004808   0x00000012   Code   RO          349    i.array_baload      array.o
    0x0800481a   0x00000018   Code   RO          350    i.array_bastore     array.o
    0x08004832   0x00000018   Code   RO          351    i.array_faload      array.o
    0x0800484a   0x00000024   Code   RO          352    i.array_fastore     array.o
    0x0800486e   0x00000014   Code   RO          353    i.array_iaload      array.o
    0x08004882   0x0000001a   Code   RO          354    i.array_iastore     array.o
    0x0800489c   0x00000020   Code   RO          355    i.array_length      array.o
    0x080048bc   0x0000002c   Code   RO          356    i.array_new         array.o
    0x080048e8   0x0000002e   Code   RO          357    i.array_typelen     array.o
    0x08004916   0x00000010   Code   RO         3248    i.atan              m_wm.l(atan.o)
    0x08004926   0x00000002   PAD
    0x08004928   0x00000020   Code   RO         1201    i.delay_ms          delay.o
    0x08004948   0x00000018   Code   RO         1202    i.delay_us          delay.o
    0x08004960   0x00000010   Code   RO         2206    i.display_clear     display.o
    0x08004970   0x00000002   Code   RO         2207    i.display_cmd       display.o
    0x08004972   0x00000040   Code   RO         2208    i.display_cursor    display.o
    0x080049b2   0x00000002   Code   RO         2209    i.display_data      display.o
    0x080049b4   0x0000002e   Code   RO          421    i.error             error.o
    0x080049e2   0x00000020   Code   RO         3306    i.fabs              m_wm.l(fabs.o)
    0x08004a02   0x00000002   PAD
    0x08004a04   0x0000006c   Code   RO          563    i.format_bool       native_formatter.o
    0x08004a70   0x000002ac   Code   RO          564    i.format_float      native_formatter.o
    0x08004d1c   0x000000f2   Code   RO          565    i.format_int        native_formatter.o
    0x08004e0e   0x00000032   Code   RO          433    i.heap_alloc        heap.o
    0x08004e40   0x00000070   Code   RO          434    i.heap_alloc_internal  heap.o
    0x08004eb0   0x0000005c   Code   RO          435    i.heap_fieldref     heap.o
    0x08004f0c   0x00000080   Code   RO          436    i.heap_garbage_collect  heap.o
    0x08004f8c   0x00000018   Code   RO          437    i.heap_get_addr     heap.o
    0x08004fa4   0x00000008   Code   RO          438    i.heap_get_base     heap.o
    0x08004fac   0x0000001a   Code   RO          439    i.heap_get_len      heap.o
    0x08004fc6   0x00000002   PAD
    0x08004fc8   0x00000018   Code   RO          440    i.heap_init         heap.o
    0x08004fe0   0x00000020   Code   RO          441    i.heap_memcpy_up    heap.o
    0x08005000   0x0000001e   Code   RO          442    i.heap_new_id       heap.o
    0x0800501e   0x00000002   PAD
    0x08005020   0x00000060   Code   RO          443    i.heap_realloc      heap.o
    0x08005080   0x00000038   Code   RO          444    i.heap_search       heap.o
    0x080050b8   0x00000058   Code   RO          446    i.heap_steal        heap.o
    0x08005110   0x00000050   Code   RO          447    i.heap_unsteal      heap.o
    0x08005160   0x00000036   Code   RO          566    i.inttostr          native_formatter.o
    0x08005196   0x00000002   Code   RO         2274    i.ir_init           ir_rc5.o
    0x08005198   0x00000010   Code   RO         2275    i.ir_read           ir_rc5.o
    0x080051a8   0x0000002c   Code   RO          147    i.kernel_main       nanovm.o
    0x080051d4   0x0000003c   Code   RO         3058    i.kernel_tickhandler  scheduler.o
    0x08005210   0x00000034   Code   RO          148    i.main              nanovm.o
    0x08005244   0x00000116   Code   RO          567    i.make_format_descr  native_formatter.o
    0x0800535a   0x00000002   PAD
    0x0800535c   0x00000020   Code   RO         2304    i.maus_image_prepare  mouse.o
    0x0800537c   0x00000034   Code   RO         2305    i.maus_image_read   mouse.o
    0x080053b0   0x00000002   Code   RO         2306    i.maus_sens_init    mouse.o
    0x080053b2   0x00000016   Code   RO         2307    i.maus_sens_read    mouse.o
    0x080053c8   0x00000004   Code   RO         2308    i.maus_sens_readByte  mouse.o
    0x080053cc   0x00000022   Code   RO         2309    i.maus_sens_write   mouse.o
    0x080053ee   0x00000002   Code   RO         2310    i.maus_sens_writeByte  mouse.o
    0x080053f0   0x0000011c   Code   RO         2790    i.motor_pwm_generate  pwm.o
    0x0800550c   0x0000003c   Code   RO         2791    i.motor_pwm_init    pwm.o
    0x08005548   0x00000002   Code   RO         2357    i.native_ctbot_bot_init  native_bot.o
    0x0800554a   0x00000002   PAD
    0x0800554c   0x000000a0   Code   RO         2358    i.native_ctbot_bot_invoke  native_bot.o
    0x080055ec   0x00000008   Code   RO         2387    i.native_ctbot_clock_init  native_clock.o
    0x080055f4   0x00000048   Code   RO         2388    i.native_ctbot_clock_invoke  native_clock.o
    0x0800563c   0x00000072   Code   RO         2421    i.native_ctbot_display_invoke  native_display.o
    0x080056ae   0x00000002   Code   RO         2976    i.native_ctbot_distsensor_init  native_distancesensor.o
    0x080056b0   0x00000094   Code   RO         2977    i.native_ctbot_distsensor_invoke  native_distancesensor.o
    0x08005744   0x00000002   Code   RO         2997    i.native_ctbot_edgedetector_init  native_edgedetector.o
    0x08005746   0x00000002   PAD
    0x08005748   0x00000094   Code   RO         2998    i.native_ctbot_edgedetector_invoke  native_edgedetector.o
    0x080057dc   0x00000008   Code   RO         2531    i.native_ctbot_irreceiver_init  native_irreceiver.o
    0x080057e4   0x00000018   Code   RO         2532    i.native_ctbot_irreceiver_invoke  native_irreceiver.o
    0x080057fc   0x00000002   Code   RO         2553    i.native_ctbot_ldrsensor_init  native_ldrsensor.o
    0x080057fe   0x00000002   PAD
    0x08005800   0x00000050   Code   RO         2554    i.native_ctbot_ldrsensor_invoke  native_ldrsensor.o
    0x08005850   0x0000003c   Code   RO         2576    i.native_ctbot_leds_invoke  native_leds.o
    0x0800588c   0x00000002   Code   RO         2597    i.native_ctbot_lightbarrier_init  native_lightbarrier.o
    0x0800588e   0x00000002   PAD
    0x08005890   0x0000005c   Code   RO         2598    i.native_ctbot_lightbarrier_invoke  native_lightbarrier.o
    0x080058ec   0x00000002   Code   RO         2615    i.native_ctbot_linedetector_init  native_linedetector.o
    0x080058ee   0x00000002   PAD
    0x080058f0   0x000000bc   Code   RO         2616    i.native_ctbot_linedetector_invoke  native_linedetector.o
    0x080059ac   0x00000008   Code   RO         2637    i.native_ctbot_motor_init  native_motor.o
    0x080059b4   0x000000d0   Code   RO         2638    i.native_ctbot_motor_invoke  native_motor.o
    0x08005a84   0x00000008   Code   RO         2669    i.native_ctbot_mouse_init  native_mouse.o
    0x08005a8c   0x0000007a   Code   RO         2670    i.native_ctbot_mouse_invoke  native_mouse.o
    0x08005b06   0x00000008   Code   RO         2687    i.native_ctbot_servo_init  native_servo.o
    0x08005b0e   0x00000038   Code   RO         2688    i.native_ctbot_servo_invoke  native_servo.o
    0x08005b46   0x00000002   Code   RO         2705    i.native_ctbot_shuttersensor_init  native_shuttersensor.o
    0x08005b48   0x0000005c   Code   RO         2706    i.native_ctbot_shuttersensor_invoke  native_shuttersensor.o
    0x08005ba4   0x00000008   Code   RO         2723    i.native_ctbot_wheelencoder_init  native_wheelencoder.o
    0x08005bac   0x000000b0   Code   RO         2724    i.native_ctbot_wheelencoder_invoke  native_wheelencoder.o
    0x08005c5c   0x00000002   Code   RO          658    i.native_dtoa       native_stdio.o
    0x08005c5e   0x00000014   Code   RO         1222    i.native_exception_invoke  native_exception.o
    0x08005c72   0x00000142   Code   RO          569    i.native_formatter_invoke  native_formatter.o
    0x08005db4   0x00000094   Code   RO          659    i.native_ftoa       native_stdio.o
    0x08005e48   0x00000016   Code   RO          870    i.native_getchar    nvmstring.o
    0x08005e5e   0x00000002   PAD
    0x08005e60   0x000000b4   Code   RO         2446    i.native_init       native_impl.o
    0x08005f14   0x0000017c   Code   RO         2447    i.native_invoke     native_impl.o
    0x08006090   0x00000054   Code   RO          660    i.native_itoa       native_stdio.o
    0x080060e4   0x00000030   Code   RO          661    i.native_java_io_inputstream_invoke  native_stdio.o
    0x08006114   0x000000b2   Code   RO          662    i.native_java_io_printstream_invoke  native_stdio.o
    0x080061c6   0x00000014   Code   RO         2448    i.native_java_lang_object_invoke  native_impl.o
    0x080061da   0x00000194   Code   RO          663    i.native_java_lang_stringbuffer_invoke  native_stdio.o
    0x0800636e   0x00000002   PAD
    0x08006370   0x000000ac   Code   RO          664    i.native_ltoa       native_stdio.o
    0x0800641c   0x000005bc   Code   RO          635    i.native_math_invoke  native_math.o
    0x080069d8   0x00000064   Code   RO         2449    i.native_new        native_impl.o
    0x08006a3c   0x00000042   Code   RO          665    i.native_print      native_stdio.o
    0x08006a7e   0x0000001a   Code   RO          871    i.native_strcat     nvmstring.o
    0x08006a98   0x00000030   Code   RO          872    i.native_strcpy     nvmstring.o
    0x08006ac8   0x00000032   Code   RO          873    i.native_strlen     nvmstring.o
    0x08006afa   0x00000042   Code   RO          875    i.native_strncpy    nvmstring.o
    0x08006b3c   0x00000034   Code   RO         1234    i.native_thread_init  native_thread.o
    0x08006b70   0x000000a0   Code   RO         1235    i.native_thread_invoke  native_thread.o
    0x08006c10   0x00000062   Code   RO         1113    i.nvm_float2stack   vm.o
    0x08006c72   0x0000000a   Code   RO         1114    i.nvm_long2stack    vm.o
    0x08006c7c   0x00000002   Code   RO         1115    i.nvm_stack2double  vm.o
    0x08006c7e   0x00000064   Code   RO         1116    i.nvm_stack2float   vm.o
    0x08006ce2   0x00000002   Code   RO         1117    i.nvm_stack2int     vm.o
    0x08006ce4   0x0000002a   Code   RO         1118    i.nvm_stack2long    vm.o
    0x08006d0e   0x00000002   PAD
    0x08006d10   0x00000044   Code   RO          732    i.nvmfile_call_main  nvmfile.o
    0x08006d54   0x00000020   Code   RO          733    i.nvmfile_get_addr  nvmfile.o
    0x08006d74   0x00000018   Code   RO          735    i.nvmfile_get_class_fields  nvmfile.o
    0x08006d8c   0x00000040   Code   RO          736    i.nvmfile_get_constant  nvmfile.o
    0x08006dcc   0x00000030   Code   RO          737    i.nvmfile_get_constant64  nvmfile.o
    0x08006dfc   0x0000002c   Code   RO          738    i.nvmfile_get_method_by_class_and_id  nvmfile.o
    0x08006e28   0x0000004c   Code   RO          739    i.nvmfile_get_method_by_fixed_class_and_id  nvmfile.o
    0x08006e74   0x00000020   Code   RO          740    i.nvmfile_get_method_hdr  nvmfile.o
    0x08006e94   0x00000010   Code   RO          741    i.nvmfile_get_static_fields  nvmfile.o
    0x08006ea4   0x00000098   Code   RO          742    i.nvmfile_init      nvmfile.o
    0x08006f3c   0x00000018   Code   RO          743    i.nvmfile_read      nvmfile.o
    0x08006f54   0x00000012   Code   RO          744    i.nvmfile_read08    nvmfile.o
    0x08006f66   0x00000012   Code   RO          745    i.nvmfile_read16    nvmfile.o
    0x08006f78   0x0000000a   Code   RO          746    i.nvmfile_read32    nvmfile.o
    0x08006f82   0x00000016   Code   RO          747    i.nvmfile_read64    nvmfile.o
    0x08006f98   0x0000001c   Code   RO         2746    i.pid_reset         pid.o
    0x08006fb4   0x00000068   Code   RO         2792    i.servo_pwm_generate  pwm.o
    0x0800701c   0x00000040   Code   RO         2793    i.servo_pwm_init    pwm.o
    0x0800705c   0x00000024   Code   RO         2794    i.servo_release     pwm.o
    0x08007080   0x0000001c   Code   RO         2795    i.set_motor_speed   pwm.o
    0x0800709c   0x0000001c   Code   RO         2796    i.set_servo_position  pwm.o
    0x080070b8   0x00000002   Code   RO         2913    i.shift_clear       shift.o
    0x080070ba   0x00000016   Code   RO         2914    i.shift_data        shift.o
    0x080070d0   0x00000002   Code   RO         2915    i.shift_data_out    shift.o
    0x080070d2   0x0000006c   Code   RO         3358    i.sqrt              m_wm.l(sqrt.o)
    0x0800713e   0x00000002   PAD
    0x08007140   0x00000018   Code   RO          912    i.stack_add_sp      stack.o
    0x08007158   0x0000000c   Code   RO          913    i.stack_get_sp      stack.o
    0x08007164   0x00000014   Code   RO          914    i.stack_get_static  stack.o
    0x08007178   0x00000044   Code   RO          915    i.stack_heap_id_in_use  stack.o
    0x080071bc   0x0000003c   Code   RO          916    i.stack_init        stack.o
    0x080071f8   0x0000001c   Code   RO          917    i.stack_is_empty    stack.o
    0x08007214   0x00000014   Code   RO          918    i.stack_peek        stack.o
    0x08007228   0x0000001c   Code   RO          919    i.stack_peek_addr   stack.o
    0x08007244   0x0000001c   Code   RO          920    i.stack_peek_double  stack.o
    0x08007260   0x0000001c   Code   RO          921    i.stack_peek_float  stack.o
    0x0800727c   0x0000001c   Code   RO          922    i.stack_peek_int    stack.o
    0x08007298   0x0000001c   Code   RO          923    i.stack_peek_long   stack.o
    0x080072b4   0x0000001c   Code   RO          924    i.stack_pop         stack.o
    0x080072d0   0x00000024   Code   RO          925    i.stack_pop_addr    stack.o
    0x080072f4   0x00000024   Code   RO          927    i.stack_pop_float   stack.o
    0x08007318   0x00000024   Code   RO          928    i.stack_pop_int     stack.o
    0x0800733c   0x00000038   Code   RO          929    i.stack_pop_long    stack.o
    0x08007374   0x00000018   Code   RO          930    i.stack_push        stack.o
    0x0800738c   0x0000003c   Code   RO          931    i.stack_push64      stack.o
    0x080073c8   0x00000014   Code   RO          932    i.stack_save_base   stack.o
    0x080073dc   0x00000010   Code   RO          933    i.stack_set_static  stack.o
    0x080073ec   0x00000004   Code   RO         1053    i.uart_available    uart.o
    0x080073f0   0x0000004c   Code   RO         1054    i.uart_init         uart.o
    0x0800743c   0x00000020   Code   RO         1055    i.uart_putc         uart.o
    0x0800745c   0x00000004   Code   RO         1056    i.uart_read_byte    uart.o
    0x08007460   0x0000001c   Code   RO         1182    i.utils_memcpy      utils.o
    0x0800747c   0x00000014   Code   RO         1183    i.utils_strlen      utils.o
    0x08007490   0x0000002e   Code   RO         1119    i.vm_get_addr       vm.o
    0x080074be   0x00000018   Code   RO         1120    i.vm_init           vm.o
    0x080074d6   0x0000003c   Code   RO         1121    i.vm_new            vm.o
    0x08007512   0x00000002   PAD
    0x08007514   0x00001170   Code   RO         1122    i.vm_run            vm.o
    0x08008684   0x0000004c   Code   RO         2949    i.wheelencoder_init  wheelencoder.o
    0x080086d0   0x00000030   Data   RO         1059    .constdata          uart.o
    0x08008700   0x00000025   Data   RO         1259    .constdata          stm32f4_discovery.o
    0x08008725   0x00000003   PAD
    0x08008728   0x00000050   Data   RO         3221    .constdata          m_wm.l(acos.o)
    0x08008778   0x00000050   Data   RO         3235    .constdata          m_wm.l(asin.o)
    0x080087c8   0x00000098   Data   RO         3249    .constdata          m_wm.l(atan.o)
    0x08008860   0x00000058   Data   RO         3293    .constdata          m_wm.l(exp.o)
    0x080088b8   0x00000038   Data   RO         3319    .constdata          m_wm.l(log.o)
    0x080088f0   0x00000088   Data   RO         3333    .constdata          m_wm.l(pow.o)
    0x08008978   0x00000030   Data   RO         3413    .constdata          m_wm.l(cos_i.o)
    0x080089a8   0x00000008   Data   RO         3421    .constdata          m_wm.l(qnan.o)
    0x080089b0   0x000000c8   Data   RO         3424    .constdata          m_wm.l(rred.o)
    0x08008a78   0x00000028   Data   RO         3428    .constdata          m_wm.l(sin_i.o)
    0x08008aa0   0x00000060   Data   RO         3434    .constdata          m_wm.l(tan_i.o)
    0x08008b00   0x00000020   Data   RO         3474    Region$$Table       anon$$obj.o


    Execution Region RW_IRAM1 (Base: 0x20000000, Size: 0x000045d0, Max: 0x00020000, ABSOLUTE, COMPRESSED[0x00000138])

    Base Addr    Size         Type   Attr      Idx    E Section Name        Object

    0x20000000   0x00000014   Data   RW           14    .data               system_stm32f4xx.o
    0x20000014   0x00000002   Data   RW          449    .data               heap.o
    0x20000016   0x00002002   Data   RW          752    .data               nvmfile.o
    0x20002018   0x00000025   Data   RW         1060    .data               uart.o
    0x2000203d   0x00000003   PAD
    0x20002040   0x00000018   Data   RW         1260    .data               stm32f4_discovery.o
    0x20002058   0x00000010   Data   RW         1347    .data               stm32f4xx_rcc.o
    0x20002068   0x0000001c   Data   RW         2111    .data               adc.o
    0x20002084   0x00000008   Data   RW         2277    .data               ir_rc5.o
    0x2000208c   0x00000001   Data   RW         2311    .data               mouse.o
    0x2000208d   0x00000001   PAD
    0x2000208e   0x00000004   Data   RW         2555    .data               native_ldrsensor.o
    0x20002092   0x00000002   PAD
    0x20002094   0x00000004   Data   RW         2577    .data               native_leds.o
    0x20002098   0x00000010   Data   RW         2617    .data               native_linedetector.o
    0x200020a8   0x00000018   Data   RW         2749    .data               pid.o
    0x200020c0   0x00000030   Data   RW         2798    .data               pwm.o
    0x200020f0   0x00000002   Data   RW         2917    .data               shift.o
    0x200020f2   0x0000000a   Data   RW         2951    .data               wheelencoder.o
    0x200020fc   0x00000004   Data   RW         2978    .data               native_distancesensor.o
    0x20002100   0x00000004   Data   RW         2999    .data               native_edgedetector.o
    0x20002104   0x00000409   Data   RW         3060    .data               scheduler.o
    0x2000250d   0x00000001   Data   RW         3144    .data               task.o
    0x2000250e   0x00000002   PAD
    0x20002510   0x00000004   Data   RW         3394    .data               mc_w.l(rand.o)
    0x20002514   0x00000004   Data   RW         3449    .data               mc_w.l(errno.o)
    0x20002518   0x00000800   Zero   RW          448    .bss                heap.o
    0x20002d18   0x00000010   Zero   RW         1058    .bss                uart.o
    0x20002d28   0x00000060   Zero   RW         2797    .bss                pwm.o
    0x20002d88   0x00000168   Zero   RW         3021    .bss                mutex.o
    0x20002ef0   0x00000120   Zero   RW         3059    .bss                scheduler.o
    0x20003010   0x000011c0   Zero   RW         3143    .bss                task.o
    0x200041d0   0x00000400   Zero   RW            1    STACK               startup_stm32f4xx.o


==============================================================================

Image component sizes


      Code (inc. data)   RO Data    RW Data    ZI Data      Debug   Object Name

       612         52          0         28          0       7718   adc.o
       270          0          0          0          0       7152   array.o
       164          6          0          0          0        612   context.o
        56         10          0          0          0       1046   delay.o
        84          0          0          0          0       2206   display.o
        46          0          0          0          0        512   error.o
       846         70          0          2       2048       9694   heap.o
        18          4          0          8          0       2070   ir_rc5.o
         0          0          0          0          0      12960   misc.o
       148         12          0          1          0       4086   mouse.o
       204         12          0          0        360       2806   mutex.o
       116         20          0          0          0       7334   nanovm.o
       162          6          0          0          0       1346   native_bot.o
       168         18          0          0          0       1955   native_clock.o
       114          0          0          0          0        898   native_display.o
       150         14          0          4          0       1658   native_distancesensor.o
       150         14          0          4          0       1664   native_edgedetector.o
        20          0          0          0          0        570   native_exception.o
      1688         38          0          0          0       6819   native_formatter.o
       680         14          0          0          0      21135   native_impl.o
        32          0          0          0          0       1248   native_irreceiver.o
        82         10          0          4          0       1588   native_ldrsensor.o
        60          6          0          4          0        647   native_leds.o
        94          4          0          0          0       1324   native_lightbarrier.o
       190         20          0         16          0       1730   native_linedetector.o
      1468         14          0          0          0       1489   native_math.o
       216         18          0          0          0       1618   native_motor.o
       130          0          0          0          0       1434   native_mouse.o
        64          0          0          0          0       1318   native_servo.o
        94          4          0          0          0       1326   native_shuttersensor.o
      1102         16          0          0          0       6023   native_stdio.o
       212         26          0          0          0       1340   native_thread.o
       184         20          0          0          0       1508   native_wheelencoder.o
       648         66          0       8194          0      10979   nvmfile.o
       212          0          0          0          0       3082   nvmstring.o
        28         12          0         24          0       2012   pid.o
       760         98          0         48         96       7517   pwm.o
       640         78          0       1033        288       7910   scheduler.o
        26          0          0          2          0       1982   shift.o
       684        116          0          0          0      11440   stack.o
        36          8        392          0       1024        964   startup_stm32f4xx.o
        24          8         37         24          0       1790   stm32f4_discovery.o
       232          0          0          0          0      10495   stm32f4xx_gpio.o
        82          8          0          0          0     227092   stm32f4xx_it.o
       320         36          0         16          0      17883   stm32f4xx_rcc.o
       270          8          0          0          0       9816   stm32f4xx_usart.o
       320         34          0         20          0     260209   system_stm32f4xx.o
       224         20          0          1       4544       5204   task.o
       356         62         48         37         16       9257   uart.o
        48          0          0          0          0       1470   utils.o
      4848         42          0          0          0      10479   vm.o
        76         34          0         10          0       1464   wheelencoder.o

    ----------------------------------------------------------------------
     19492       1058        512       9488       8376     717879   Object Totals
         0          0         32          0          0          0   (incl. Generated)
        34          0          3          8          0          0   (incl. Padding)

    ----------------------------------------------------------------------

      Code (inc. data)   RO Data    RW Data    ZI Data      Debug   Library Member Name

       848        110         80          0          0        196   acos.o
       880        106         80          0          0        200   asin.o
       760        108        152          0          0        344   atan.o
       488         66          0          0          0        160   atan2.o
       280         28          0          0          0        156   ceil.o
       216         16          0          0          0        156   cos.o
       368         46         48          0          0        204   cos_i.o
        32          8          0          0          0        124   dunder.o
       872        146         88          0          0        224   exp.o
        52          0          0          0          0        248   fabs.o
       280         28          0          0          0        156   floor.o
        48          0          0          0          0        124   fpclassify.o
       996        108         56          0          0        232   log.o
       248          0          0          0          0        152   poly.o
      3240        310        136          0          0        220   pow.o
         0          0          8          0          0          0   qnan.o
      1104        142        200          0          0        188   rred.o
       216         16          0          0          0        156   sin.o
       304         24         40          0          0        208   sin_i.o
       228          0          0          0          0        296   sqrt.o
       160         18          0          0          0        156   tan.o
       856         84         96          0          0        196   tan_i.o
        92          0          0          0          0          0   __dczerorl2.o
         0          0          0          0          0          0   entry.o
         8          4          0          0          0          0   entry2.o
         4          0          0          0          0          0   entry5.o
         0          0          0          0          0          0   entry7b.o
         8          4          0          0          0          0   entry8.o
        12          6          0          4          0         68   errno.o
        30          0          0          0          0          0   handlers.o
        36          8          0          0          0         68   init.o
         0          0          0          0          0          0   iusefp.o
        90          0          0          0          0         84   ldiv.o
        30          0          0          0          0         68   llshl.o
        36          0          0          0          0         68   llsshr.o
        32          0          0          0          0         68   llushr.o
        36          0          0          0          0         68   memcpya.o
        36         10          0          4          0        136   rand.o
        98          0          0          0          0         92   uldiv.o
        40          2          0          0          0         68   cdcmple.o
        40          2          0          0          0         68   cdrcmple.o
        56          0          0          0          0         88   d2f.o
       332          0          0          0          0        148   dadd.o
       222          0          0          0          0        100   ddiv.o
       190          0          0          0          0        176   depilogue.o
        62          0          0          0          0         80   dfixi.o
        34          0          0          0          0         76   dflti.o
        26          0          0          0          0         76   dfltui.o
       224          0          0          0          0         96   dmul.o
        46          0          0          0          0         80   dscalb.o
       162          0          0          0          0        100   dsqrt.o
        44          0          0          0          0         68   f2d.o
       108          0          0          0          0        168   fepilogue.o

    ----------------------------------------------------------------------
     14628       1404        984          8          0       6208   Library Totals
        18          4          0          0          0          0   (incl. Padding)

    ----------------------------------------------------------------------

      Code (inc. data)   RO Data    RW Data    ZI Data      Debug   Library Name

     12476       1364        984          0          0       4096   m_wm.l
       548         32          0          8          0        720   mc_w.l
      1586          4          0          0          0       1392   mf_w.l

    ----------------------------------------------------------------------
     14628       1404        984          8          0       6208   Library Totals

    ----------------------------------------------------------------------

==============================================================================


      Code (inc. data)   RO Data    RW Data    ZI Data      Debug   

     34120       2462       1496       9496       8376     699795   Grand Totals
     34120       2462       1496        312       8376     699795   ELF Image Totals (compressed)
     34120       2462       1496        312          0          0   ROM Totals

==============================================================================

    Total RO  Size (Code + RO Data)                35616 (  34.78kB)
    Total RW  Size (RW Data + ZI Data)             17872 (  17.45kB)
    Total ROM Size (Code + RO Data + RW Data)      35928 (  35.09kB)

==============================================================================

